00094610 <_ZNK2EA2IO10FileStream7GetTypeEv>:
   94610:	e52db004 	push	{fp}		; (str fp, [sp, #-4]!)
   94614:	e28db000 	add	fp, sp, #0	; 0x0
   94618:	e24dd00c 	sub	sp, sp, #12	; 0xc
   9461c:	e50b0008 	str	r0, [fp, #-8]
   94620:	e3023300 	movw	r3, #8960	; 0x2300
   94624:	e3433472 	movt	r3, #13426	; 0x3472
   94628:	e1a00003 	mov	r0, r3
   9462c:	e28bd000 	add	sp, fp, #0	; 0x0
   94630:	e8bd0800 	pop	{fp}
   94634:	e12fff1e 	bx	lr

000c0080 <_ZN2EA4Text12create_arrayINS0_14OTFRangeRecordEEEPT_PNS_9Allocator14StackAllocatorEj>:
   c0080:	e92d4800 	push	{fp, lr}
   c0084:	e28db004 	add	fp, sp, #4	; 0x4
   c0088:	e24dd018 	sub	sp, sp, #24	; 0x18
   c008c:	e50b0018 	str	r0, [fp, #-24]
   c0090:	e50b101c 	str	r1, [fp, #-28]
   c0094:	e3a03002 	mov	r3, #2	; 0x2
   c0098:	e50b3010 	str	r3, [fp, #-16]
   c009c:	e51b201c 	ldr	r2, [fp, #-28]
   c00a0:	e1a03002 	mov	r3, r2
   c00a4:	e1a03083 	lsl	r3, r3, #1
   c00a8:	e0833002 	add	r3, r3, r2
   c00ac:	e1a03083 	lsl	r3, r3, #1
   c00b0:	e2833004 	add	r3, r3, #4	; 0x4
   c00b4:	e51b0018 	ldr	r0, [fp, #-24]
   c00b8:	e1a01003 	mov	r1, r3
   c00bc:	e3a02001 	mov	r2, #1	; 0x1
   c00c0:	ebfffccd 	bl	bf3fc <_ZN2EA9Allocator14StackAllocator6MallocEjb>
   c00c4:	e1a03000 	mov	r3, r0
   c00c8:	e50b3014 	str	r3, [fp, #-20]
   c00cc:	e51b3014 	ldr	r3, [fp, #-20]
   c00d0:	e3530000 	cmp	r3, #0	; 0x0
   c00d4:	0a00001c 	beq	c014c <_ZN2EA4Text12create_arrayINS0_14OTFRangeRecordEEEPT_PNS_9Allocator14StackAllocatorEj+0xcc>
   c00d8:	e51b2014 	ldr	r2, [fp, #-20]
   c00dc:	e51b301c 	ldr	r3, [fp, #-28]
   c00e0:	e5823000 	str	r3, [r2]
   c00e4:	e51b3014 	ldr	r3, [fp, #-20]
   c00e8:	e2833004 	add	r3, r3, #4	; 0x4
   c00ec:	e50b3014 	str	r3, [fp, #-20]
   c00f0:	e51b3014 	ldr	r3, [fp, #-20]
   c00f4:	e50b300c 	str	r3, [fp, #-12]
   c00f8:	e51b201c 	ldr	r2, [fp, #-28]
   c00fc:	e1a03002 	mov	r3, r2
   c0100:	e1a03083 	lsl	r3, r3, #1
   c0104:	e0833002 	add	r3, r3, r2
   c0108:	e1a03083 	lsl	r3, r3, #1
   c010c:	e1a02003 	mov	r2, r3
   c0110:	e51b300c 	ldr	r3, [fp, #-12]
   c0114:	e0833002 	add	r3, r3, r2
   c0118:	e50b3008 	str	r3, [fp, #-8]
   c011c:	ea000006 	b	c013c <_ZN2EA4Text12create_arrayINS0_14OTFRangeRecordEEEPT_PNS_9Allocator14StackAllocatorEj+0xbc>
   c0120:	e51b300c 	ldr	r3, [fp, #-12]
   c0124:	e3a00006 	mov	r0, #6	; 0x6
   c0128:	e1a01003 	mov	r1, r3
   c012c:	ebfd3e15 	bl	f988 <_ZnwjPv>
   c0130:	e51b300c 	ldr	r3, [fp, #-12]
   c0134:	e2833006 	add	r3, r3, #6	; 0x6
   c0138:	e50b300c 	str	r3, [fp, #-12]
   c013c:	e51b200c 	ldr	r2, [fp, #-12]
   c0140:	e51b3008 	ldr	r3, [fp, #-8]
   c0144:	e1520003 	cmp	r2, r3
   c0148:	1afffff4 	bne	c0120 <_ZN2EA4Text12create_arrayINS0_14OTFRangeRecordEEEPT_PNS_9Allocator14StackAllocatorEj+0xa0>
   c014c:	e51b3014 	ldr	r3, [fp, #-20]
   c0150:	e1a00003 	mov	r0, r3
   c0154:	e24bd004 	sub	sp, fp, #4	; 0x4
   c0158:	e8bd8800 	pop	{fp, pc}

