 ObfuscateStrings

 Timestamp is 5e2f1d09 (Mon Jan 27 14:25:29 2020)

 Preferred load address is 00400000

 Start         Length     Name                   Class
 0001:00000000 00000300H .text$di                CODE
 0001:00000300 00027c40H .text$mn                CODE
 0001:00027f40 00000c00H .text$x                 CODE
 0001:00028b40 000001f6H .text$yd                CODE
 0002:00000000 00000150H .idata$5                DATA
 0002:00000150 00000004H .00cfg                  DATA
 0002:00000154 00000004H .CRT$XCA                DATA
 0002:00000158 00000004H .CRT$XCAA               DATA
 0002:0000015c 0000002cH .CRT$XCC                DATA
 0002:00000188 00000008H .CRT$XCL                DATA
 0002:00000190 00000010H .CRT$XCU                DATA
 0002:000001a0 00000004H .CRT$XCZ                DATA
 0002:000001a4 00000004H .CRT$XIA                DATA
 0002:000001a8 00000004H .CRT$XIAA               DATA
 0002:000001ac 00000004H .CRT$XIAC               DATA
 0002:000001b0 0000001cH .CRT$XIC                DATA
 0002:000001cc 00000004H .CRT$XIZ                DATA
 0002:000001d0 00000004H .CRT$XLA                DATA
 0002:000001d4 00000004H .CRT$XLZ                DATA
 0002:000001d8 00000004H .CRT$XPA                DATA
 0002:000001dc 00000008H .CRT$XPX                DATA
 0002:000001e4 00000004H .CRT$XPXA               DATA
 0002:000001e8 00000004H .CRT$XPZ                DATA
 0002:000001ec 00000004H .CRT$XTA                DATA
 0002:000001f0 00000010H .CRT$XTZ                DATA
 0002:00000200 0000c514H .rdata                  DATA
 0002:0000c714 00000018H .rdata$T                DATA
 0002:0000c72c 00000d44H .rdata$r                DATA
 0002:0000d470 000000f4H .rdata$sxdata           DATA
 0002:0000d564 00000408H .rdata$zzzdbg           DATA
 0002:0000d96c 00000004H .rtc$IAA                DATA
 0002:0000d970 00000004H .rtc$IZZ                DATA
 0002:0000d974 00000004H .rtc$TAA                DATA
 0002:0000d978 00000008H .rtc$TZZ                DATA
 0002:0000d980 000017acH .xdata$x                DATA
 0002:0000f12c 00000000H .edata                  DATA
 0002:0000f12c 00000028H .idata$2                DATA
 0002:0000f154 00000014H .idata$3                DATA
 0002:0000f168 00000150H .idata$4                DATA
 0002:0000f2b8 00000602H .idata$6                DATA
 0003:00000000 000009b0H .data                   DATA
 0003:000009b0 000006b0H .data$r                 DATA
 0003:00001060 00000ff0H .bss                    DATA
 0004:00000000 0000026cH .gfids$y                DATA
 0005:00000000 00000004H .tls                    DATA
 0005:00000004 00000004H .tls$                   DATA
 0005:00000008 00000001H .tls$ZZZ                DATA

  Address         Publics by Value              Rva+Base       Lib:Object

 0000:00000000       ___guard_fids_count        00000000     <absolute>
 0000:00000000       ___guard_longjmp_count     00000000     <absolute>
 0000:00000000       __except_list              00000000     <absolute>
 0000:00000000       ___guard_longjmp_table     00000000     <absolute>
 0000:00000000       ___guard_iat_table         00000000     <absolute>
 0000:00000000       ___guard_iat_count         00000000     <absolute>
 0000:00000000       ___guard_fids_table        00000000     <absolute>
 0000:00000000       ___dynamic_value_reloc_table 00000000     <absolute>
 0000:0000002c       __tls_array                0000002c     <absolute>
 0000:0000003d       ___safe_se_handler_count   0000003d     <absolute>
 0000:00000100       ___guard_flags             00000100     <absolute>
 0000:00000000       ___ImageBase               00400000     <linker-defined>
 0001:00000300       ??$?6U?$char_traits@D@std@@@std@@YAAAV?$basic_ostream@DU?$char_traits@D@std@@@0@AAV10@PBD@Z 00401300 f i ObfuscateStrings.cpp.obj
 0001:000005d0       ??$?6_WU?$char_traits@_W@std@@@std@@YAAAV?$basic_ostream@_WU?$char_traits@_W@std@@@0@AAV10@PBD@Z 004015d0 f i ObfuscateStrings.cpp.obj
 0001:00000960       ??$?6_WU?$char_traits@_W@std@@@std@@YAAAV?$basic_ostream@_WU?$char_traits@_W@std@@@0@AAV10@PB_W@Z 00401960 f i ObfuscateStrings.cpp.obj
 0001:00000c40       ??$_Immortalize@V_Iostream_error_category@std@@@std@@YAAAV_Iostream_error_category@0@XZ 00401c40 f i ObfuscateStrings.cpp.obj
 0001:00000cb0       ??$use_facet@V?$ctype@D@std@@@std@@YAABV?$ctype@D@0@ABVlocale@0@@Z 00401cb0 f i ObfuscateStrings.cpp.obj
 0001:00000de0       ??$use_facet@V?$ctype@_W@std@@@std@@YAABV?$ctype@_W@0@ABVlocale@0@@Z 00401de0 f i ObfuscateStrings.cpp.obj
 0001:00000f10       ??$use_facet@V?$num_put@DV?$ostreambuf_iterator@DU?$char_traits@D@std@@@std@@@std@@@std@@YAABV?$num_put@DV?$ostreambuf_iterator@DU?$char_traits@D@std@@@std@@@0@ABVlocale@0@@Z 00401f10 f i ObfuscateStrings.cpp.obj
 0001:00001040       ??$use_facet@V?$numpunct@D@std@@@std@@YAABV?$numpunct@D@0@ABVlocale@0@@Z 00402040 f i ObfuscateStrings.cpp.obj
 0001:00001170       ??0?$ctype@_W@std@@QAE@ABV_Locinfo@1@I@Z 00402170 f i ObfuscateStrings.cpp.obj
 0001:000011d0       ??0_Locinfo@std@@QAE@PBD@Z 004021d0 f i ObfuscateStrings.cpp.obj
 0001:000012b0       ??0_System_error@std@@IAE@Verror_code@1@ABV?$basic_string@DU?$char_traits@D@std@@V?$allocator@D@2@@1@@Z 004022b0 f i ObfuscateStrings.cpp.obj
 0001:00001380       ??0_System_error@std@@QAE@ABV01@@Z 00402380 f i ObfuscateStrings.cpp.obj
 0001:000013c0       ??0bad_cast@std@@QAE@ABV01@@Z 004023c0 f i ObfuscateStrings.cpp.obj
 0001:000013f0       ??0exception@std@@QAE@ABV01@@Z 004023f0 f i ObfuscateStrings.cpp.obj
 0001:00001420       ??0failure@ios_base@std@@QAE@ABV012@@Z 00402420 f i ObfuscateStrings.cpp.obj
 0001:00001470       ??0runtime_error@std@@QAE@ABV01@@Z 00402470 f i ObfuscateStrings.cpp.obj
 0001:000014a0       ??0sentry@?$basic_ostream@DU?$char_traits@D@std@@@std@@QAE@AAV12@@Z 004024a0 f i ObfuscateStrings.cpp.obj
 0001:000014a0       ??0sentry@?$basic_ostream@_WU?$char_traits@_W@std@@@std@@QAE@AAV12@@Z 004024a0 f i ObfuscateStrings.cpp.obj
 0001:00001530       ??0system_error@std@@QAE@ABV01@@Z 00402530 f i ObfuscateStrings.cpp.obj
 0001:00001580       ??0system_error@std@@QAE@Verror_code@1@PBD@Z 00402580 f i ObfuscateStrings.cpp.obj
 0001:00001640       ??1?$_Yarn@_W@std@@QAE@XZ  00402640 f i ObfuscateStrings.cpp.obj
 0001:00001640       ??1?$_Yarn@D@std@@QAE@XZ   00402640 f i ObfuscateStrings.cpp.obj
 0001:00001660       ??1?$basic_string@DU?$char_traits@D@std@@V?$allocator@D@2@@std@@QAE@XZ 00402660 f i ObfuscateStrings.cpp.obj
 0001:000016a0       ??1_Locinfo@std@@QAE@XZ    004026a0 f i ObfuscateStrings.cpp.obj
 0001:00001770       ??1_Sentry_base@?$basic_ostream@_WU?$char_traits@_W@std@@@std@@QAE@XZ 00402770 f i ObfuscateStrings.cpp.obj
 0001:00001770       ??1_Sentry_base@?$basic_ostream@DU?$char_traits@D@std@@@std@@QAE@XZ 00402770 f i ObfuscateStrings.cpp.obj
 0001:00001770       ??1_Sentry_base@?$basic_istream@DU?$char_traits@D@std@@@std@@QAE@XZ 00402770 f i StringScanner.cpp.obj
 0001:000017c0       ??1length_error@std@@UAE@XZ 004027c0 f i libcpmt:xthrow.obj
 0001:000017c0       ??1out_of_range@std@@UAE@XZ 004027c0 f i libcpmt:xthrow.obj
 0001:000017c0       ??1bad_exception@std@@UAE@XZ 004027c0 f i libvcruntime:frame.obj
 0001:000017c0       ??1bad_cast@std@@UAE@XZ    004027c0 f i ObfuscateStrings.cpp.obj
 0001:000017c0       ??1bad_alloc@std@@UAE@XZ   004027c0 f i libcpmt:xthrow.obj
 0001:000017c0       ??1failure@ios_base@std@@UAE@XZ 004027c0 f i ObfuscateStrings.cpp.obj
 0001:000017c0       ??1runtime_error@std@@UAE@XZ 004027c0 f i ObfuscateStrings.cpp.obj
 0001:000017c0       ??1bad_array_new_length@std@@UAE@XZ 004027c0 f i LIBCMT:throw_bad_alloc.obj
 0001:000017e0       ??1facet@locale@std@@MAE@XZ 004027e0 f i ObfuscateStrings.cpp.obj
 0001:000017f0       ??1locale@std@@QAE@XZ      004027f0 f i ObfuscateStrings.cpp.obj
 0001:00001840       ??1sentry@?$basic_ostream@_WU?$char_traits@_W@std@@@std@@QAE@XZ 00402840 f i ObfuscateStrings.cpp.obj
 0001:00001840       ??1sentry@?$basic_ostream@DU?$char_traits@D@std@@@std@@QAE@XZ 00402840 f i ObfuscateStrings.cpp.obj
 0001:000018a0       ??6?$basic_ostream@DU?$char_traits@D@std@@@std@@QAEAAV01@H@Z 004028a0 f i ObfuscateStrings.cpp.obj
 0001:00001a50       ??_E?$ctype@D@std@@MAEPAXI@Z 00402a50 f i ObfuscateStrings.cpp.obj
 0001:00001a50       ??_G?$ctype@D@std@@MAEPAXI@Z 00402a50 f i ObfuscateStrings.cpp.obj
 0001:00001aa0       ??_G?$ctype@_W@std@@MAEPAXI@Z 00402aa0 f i ObfuscateStrings.cpp.obj
 0001:00001aa0       ??_E?$ctype@_W@std@@MAEPAXI@Z 00402aa0 f i ObfuscateStrings.cpp.obj
 0001:00001af0       ??_E?$numpunct@D@std@@MAEPAXI@Z 00402af0 f i ObfuscateStrings.cpp.obj
 0001:00001af0       ??_G?$numpunct@D@std@@MAEPAXI@Z 00402af0 f i ObfuscateStrings.cpp.obj
 0001:00001b40       ??_G_Facet_base@std@@UAEPAXI@Z 00402b40 f i ObfuscateStrings.cpp.obj
 0001:00001b40       ??_E_Facet_base@std@@UAEPAXI@Z 00402b40 f i ObfuscateStrings.cpp.obj
 0001:00001b70       ??_G_Iostream_error_category@std@@UAEPAXI@Z 00402b70 f i ObfuscateStrings.cpp.obj
 0001:00001b70       ??_Gerror_category@std@@UAEPAXI@Z 00402b70 f i ObfuscateStrings.cpp.obj
 0001:00001b70       ??_Eerror_category@std@@UAEPAXI@Z 00402b70 f i ObfuscateStrings.cpp.obj
 0001:00001b70       ??_E_Iostream_error_category@std@@UAEPAXI@Z 00402b70 f i ObfuscateStrings.cpp.obj
 0001:00001ba0       ??_Eruntime_error@std@@UAEPAXI@Z 00402ba0 f i ObfuscateStrings.cpp.obj
 0001:00001ba0       ??_Gbad_cast@std@@UAEPAXI@Z 00402ba0 f i ObfuscateStrings.cpp.obj
 0001:00001ba0       ??_Ebad_cast@std@@UAEPAXI@Z 00402ba0 f i ObfuscateStrings.cpp.obj
 0001:00001ba0       ??_Eexception@std@@UAEPAXI@Z 00402ba0 f i ObfuscateStrings.cpp.obj
 0001:00001ba0       ??_Gruntime_error@std@@UAEPAXI@Z 00402ba0 f i ObfuscateStrings.cpp.obj
 0001:00001ba0       ??_Gexception@std@@UAEPAXI@Z 00402ba0 f i ObfuscateStrings.cpp.obj
 0001:00001bd0       ??_Gfailure@ios_base@std@@UAEPAXI@Z 00402bd0 f i ObfuscateStrings.cpp.obj
 0001:00001bd0       ??_Gsystem_error@std@@UAEPAXI@Z 00402bd0 f i ObfuscateStrings.cpp.obj
 0001:00001bd0       ??_Efailure@ios_base@std@@UAEPAXI@Z 00402bd0 f i ObfuscateStrings.cpp.obj
 0001:00001bd0       ??_Esystem_error@std@@UAEPAXI@Z 00402bd0 f i ObfuscateStrings.cpp.obj
 0001:00001bd0       ??_E_System_error@std@@UAEPAXI@Z 00402bd0 f i ObfuscateStrings.cpp.obj
 0001:00001bd0       ??_G_System_error@std@@UAEPAXI@Z 00402bd0 f i ObfuscateStrings.cpp.obj
 0001:00001c00       ?ConsoleCtrlHandler@@YGHK@Z 00402c00 f   ObfuscateStrings.cpp.obj
 0001:00001c20       ?_Assign_rv@?$basic_string@DU?$char_traits@D@std@@V?$allocator@D@2@@std@@QAEX$$QAV12@@Z 00402c20 f i ObfuscateStrings.cpp.obj
 0001:00001c90       ?_Chassign@?$basic_string@DU?$char_traits@D@std@@V?$allocator@D@2@@std@@QAEXIID@Z 00402c90 f i ObfuscateStrings.cpp.obj
 0001:00001ce0       ?_Copy@?$basic_string@DU?$char_traits@D@std@@V?$allocator@D@2@@std@@QAEXII@Z 00402ce0 f i ObfuscateStrings.cpp.obj
 0001:00001e40       ?_Copy@?$basic_string@_WU?$char_traits@_W@std@@V?$allocator@_W@2@@std@@QAEXII@Z 00402e40 f i ObfuscateStrings.cpp.obj
 0001:00001fb0       ?_Decref@facet@locale@std@@UAEPAV_Facet_base@3@XZ 00402fb0 f i ObfuscateStrings.cpp.obj
 0001:00001fd0       ?_Ffmt@?$num_put@DV?$ostreambuf_iterator@DU?$char_traits@D@std@@@std@@@std@@ABAPADPADDH@Z 00402fd0 f i ObfuscateStrings.cpp.obj
 0001:00002090       ?_Fput@?$num_put@DV?$ostreambuf_iterator@DU?$char_traits@D@std@@@std@@@std@@ABA?AV?$ostreambuf_iterator@DU?$char_traits@D@std@@@2@V32@AAVios_base@2@DPBDI@Z 00403090 f i ObfuscateStrings.cpp.obj
 0001:00002450       ?_Getcat@?$ctype@D@std@@SAIPAPBVfacet@locale@2@PBV42@@Z 00403450 f i ObfuscateStrings.cpp.obj
 0001:00002520       ?_Getcat@?$ctype@_W@std@@SAIPAPBVfacet@locale@2@PBV42@@Z 00403520 f i ObfuscateStrings.cpp.obj
 0001:000025d0       ?_Getcat@?$num_put@DV?$ostreambuf_iterator@DU?$char_traits@D@std@@@std@@@std@@SAIPAPBVfacet@locale@2@PBV42@@Z 004035d0 f i ObfuscateStrings.cpp.obj
 0001:00002680       ?_Getcat@?$numpunct@D@std@@SAIPAPBVfacet@locale@2@PBV42@@Z 00403680 f i ObfuscateStrings.cpp.obj
 0001:00002750       ?_Ifmt@?$num_put@DV?$ostreambuf_iterator@DU?$char_traits@D@std@@@std@@@std@@ABAPADPADPBDH@Z 00403750 f i ObfuscateStrings.cpp.obj
 0001:000027e0       ?_Incref@facet@locale@std@@UAEXXZ 004037e0 f i ObfuscateStrings.cpp.obj
 0001:000027f0       ?_Init@?$numpunct@D@std@@IAEXABV_Locinfo@2@_N@Z 004037f0 f i ObfuscateStrings.cpp.obj
 0001:00002990       ?_Iput@?$num_put@DV?$ostreambuf_iterator@DU?$char_traits@D@std@@@std@@@std@@ABA?AV?$ostreambuf_iterator@DU?$char_traits@D@std@@@2@V32@AAVios_base@2@DPADI@Z 00403990 f i ObfuscateStrings.cpp.obj
 0001:00002cf0       ?_Makestr@_System_error@std@@CA?AV?$basic_string@DU?$char_traits@D@std@@V?$allocator@D@2@@2@Verror_code@2@V32@@Z 00403cf0 f i ObfuscateStrings.cpp.obj
 0001:00002dd0       ?_Osfx@?$basic_ostream@_WU?$char_traits@_W@std@@@std@@QAEXXZ 00403dd0 f i ObfuscateStrings.cpp.obj
 0001:00002dd0       ?_Osfx@?$basic_ostream@DU?$char_traits@D@std@@@std@@QAEXXZ 00403dd0 f i ObfuscateStrings.cpp.obj
 0001:00002e60       ?_Put@?$num_put@DV?$ostreambuf_iterator@DU?$char_traits@D@std@@@std@@@std@@ABA?AV?$ostreambuf_iterator@DU?$char_traits@D@std@@@2@V32@PBDI@Z 00403e60 f i ObfuscateStrings.cpp.obj
 0001:00002ee0       ?_Rep@?$num_put@DV?$ostreambuf_iterator@DU?$char_traits@D@std@@@std@@@std@@ABA?AV?$ostreambuf_iterator@DU?$char_traits@D@std@@@2@V32@DI@Z 00403ee0 f i ObfuscateStrings.cpp.obj
 0001:00002f50       ?_Tidy@?$numpunct@D@std@@AAEXXZ 00403f50 f i ObfuscateStrings.cpp.obj
 0001:00002f70       ?allocate@?$allocator@D@std@@QAEPADI@Z 00403f70 f i ObfuscateStrings.cpp.obj
 0001:00002fd0       ?allocate@?$allocator@_W@std@@QAEPA_WI@Z 00403fd0 f i ObfuscateStrings.cpp.obj
 0001:00003040       ?append@?$basic_string@DU?$char_traits@D@std@@V?$allocator@D@2@@std@@QAEAAV12@ABV12@II@Z 00404040 f i ObfuscateStrings.cpp.obj
 0001:00003140       ?append@?$basic_string@DU?$char_traits@D@std@@V?$allocator@D@2@@std@@QAEAAV12@ID@Z 00404140 f i ObfuscateStrings.cpp.obj
 0001:000031f0       ?append@?$basic_string@DU?$char_traits@D@std@@V?$allocator@D@2@@std@@QAEAAV12@PBDI@Z 004041f0 f i ObfuscateStrings.cpp.obj
 0001:00003320       ?assign@?$basic_string@DU?$char_traits@D@std@@V?$allocator@D@2@@std@@QAEAAV12@ABV12@II@Z 00404320 f i ObfuscateStrings.cpp.obj
 0001:00003430       ?assign@?$basic_string@DU?$char_traits@D@std@@V?$allocator@D@2@@std@@QAEAAV12@ID@Z 00404430 f i ObfuscateStrings.cpp.obj
 0001:00003500       ?assign@?$basic_string@DU?$char_traits@D@std@@V?$allocator@D@2@@std@@QAEAAV12@PBDI@Z 00404500 f i ObfuscateStrings.cpp.obj
 0001:00003600       ?assign@?$basic_string@_WU?$char_traits@_W@std@@V?$allocator@_W@2@@std@@QAEAAV12@ABV12@II@Z 00404600 f i ObfuscateStrings.cpp.obj
 0001:00003720       ?assign@?$basic_string@_WU?$char_traits@_W@std@@V?$allocator@_W@2@@std@@QAEAAV12@PB_WI@Z 00404720 f i ObfuscateStrings.cpp.obj
 0001:00003820       ?clear@ios_base@std@@QAEXH_N@Z 00404820 f i ObfuscateStrings.cpp.obj
 0001:000038e0       ?deallocate@?$_Wrap_alloc@V?$allocator@D@std@@@std@@QAEXPADI@Z 004048e0 f i ObfuscateStrings.cpp.obj
 0001:00003940       ?deallocate@?$_Wrap_alloc@V?$allocator@_W@std@@@std@@QAEXPA_WI@Z 00404940 f i ObfuscateStrings.cpp.obj
 0001:000039a0       ?default_error_condition@error_category@std@@UBE?AVerror_condition@2@H@Z 004049a0 f i ObfuscateStrings.cpp.obj
 0001:000039b0       ?do_decimal_point@?$numpunct@D@std@@MBEDXZ 004049b0 f i ObfuscateStrings.cpp.obj
 0001:000039c0       ?do_falsename@?$numpunct@D@std@@MBE?AV?$basic_string@DU?$char_traits@D@std@@V?$allocator@D@2@@2@XZ 004049c0 f i ObfuscateStrings.cpp.obj
 0001:00003a20       ?do_grouping@?$numpunct@D@std@@MBE?AV?$basic_string@DU?$char_traits@D@std@@V?$allocator@D@2@@2@XZ 00404a20 f i ObfuscateStrings.cpp.obj
 0001:00003a80       ?do_is@?$ctype@_W@std@@MBEPB_WPB_W0PAF@Z 00404a80 f i ObfuscateStrings.cpp.obj
 0001:00003aa0       ?do_is@?$ctype@_W@std@@MBE_NF_W@Z 00404aa0 f i ObfuscateStrings.cpp.obj
 0001:00003ac0       ?do_narrow@?$ctype@D@std@@MBEDDD@Z 00404ac0 f i ObfuscateStrings.cpp.obj
 0001:00003ad0       ?do_narrow@?$ctype@D@std@@MBEPBDPBD0DPAD@Z 00404ad0 f i ObfuscateStrings.cpp.obj
 0001:00003af0       ?do_narrow@?$ctype@_W@std@@MBED_WD@Z 00404af0 f i ObfuscateStrings.cpp.obj
 0001:00003b50       ?do_narrow@?$ctype@_W@std@@MBEPB_WPB_W0DPAD@Z 00404b50 f i ObfuscateStrings.cpp.obj
 0001:00003bf0       ?do_put@?$num_put@DV?$ostreambuf_iterator@DU?$char_traits@D@std@@@std@@@std@@MBE?AV?$ostreambuf_iterator@DU?$char_traits@D@std@@@2@V32@AAVios_base@2@DJ@Z 00404bf0 f i ObfuscateStrings.cpp.obj
 0001:00003c80       ?do_put@?$num_put@DV?$ostreambuf_iterator@DU?$char_traits@D@std@@@std@@@std@@MBE?AV?$ostreambuf_iterator@DU?$char_traits@D@std@@@2@V32@AAVios_base@2@DK@Z 00404c80 f i ObfuscateStrings.cpp.obj
 0001:00003d10       ?do_put@?$num_put@DV?$ostreambuf_iterator@DU?$char_traits@D@std@@@std@@@std@@MBE?AV?$ostreambuf_iterator@DU?$char_traits@D@std@@@2@V32@AAVios_base@2@DN@Z 00404d10 f i ObfuscateStrings.cpp.obj
 0001:00003ec0       ?do_put@?$num_put@DV?$ostreambuf_iterator@DU?$char_traits@D@std@@@std@@@std@@MBE?AV?$ostreambuf_iterator@DU?$char_traits@D@std@@@2@V32@AAVios_base@2@DO@Z 00404ec0 f i ObfuscateStrings.cpp.obj
 0001:00004070       ?do_put@?$num_put@DV?$ostreambuf_iterator@DU?$char_traits@D@std@@@std@@@std@@MBE?AV?$ostreambuf_iterator@DU?$char_traits@D@std@@@2@V32@AAVios_base@2@DPBX@Z 00405070 f i ObfuscateStrings.cpp.obj
 0001:000040e0       ?do_put@?$num_put@DV?$ostreambuf_iterator@DU?$char_traits@D@std@@@std@@@std@@MBE?AV?$ostreambuf_iterator@DU?$char_traits@D@std@@@2@V32@AAVios_base@2@D_J@Z 004050e0 f i ObfuscateStrings.cpp.obj
 0001:00004170       ?do_put@?$num_put@DV?$ostreambuf_iterator@DU?$char_traits@D@std@@@std@@@std@@MBE?AV?$ostreambuf_iterator@DU?$char_traits@D@std@@@2@V32@AAVios_base@2@D_K@Z 00405170 f i ObfuscateStrings.cpp.obj
 0001:00004200       ?do_put@?$num_put@DV?$ostreambuf_iterator@DU?$char_traits@D@std@@@std@@@std@@MBE?AV?$ostreambuf_iterator@DU?$char_traits@D@std@@@2@V32@AAVios_base@2@D_N@Z 00405200 f i ObfuscateStrings.cpp.obj
 0001:00004400       ?do_scan_is@?$ctype@_W@std@@MBEPB_WFPB_W0@Z 00405400 f i ObfuscateStrings.cpp.obj
 0001:00004440       ?do_scan_not@?$ctype@_W@std@@MBEPB_WFPB_W0@Z 00405440 f i ObfuscateStrings.cpp.obj
 0001:00004480       ?do_thousands_sep@?$numpunct@D@std@@MBEDXZ 00405480 f i ObfuscateStrings.cpp.obj
 0001:00004490       ?do_tolower@?$ctype@D@std@@MBEDD@Z 00405490 f i ObfuscateStrings.cpp.obj
 0001:000044b0       ?do_tolower@?$ctype@D@std@@MBEPBDPADPBD@Z 004054b0 f i ObfuscateStrings.cpp.obj
 0001:000044f0       ?do_tolower@?$ctype@_W@std@@MBEPB_WPA_WPB_W@Z 004054f0 f i ObfuscateStrings.cpp.obj
 0001:00004540       ?do_tolower@?$ctype@_W@std@@MBE_W_W@Z 00405540 f i ObfuscateStrings.cpp.obj
 0001:00004560       ?do_toupper@?$ctype@D@std@@MBEDD@Z 00405560 f i ObfuscateStrings.cpp.obj
 0001:00004580       ?do_toupper@?$ctype@D@std@@MBEPBDPADPBD@Z 00405580 f i ObfuscateStrings.cpp.obj
 0001:000045c0       ?do_toupper@?$ctype@_W@std@@MBEPB_WPA_WPB_W@Z 004055c0 f i ObfuscateStrings.cpp.obj
 0001:00004610       ?do_toupper@?$ctype@_W@std@@MBE_W_W@Z 00405610 f i ObfuscateStrings.cpp.obj
 0001:00004630       ?do_truename@?$numpunct@D@std@@MBE?AV?$basic_string@DU?$char_traits@D@std@@V?$allocator@D@2@@2@XZ 00405630 f i ObfuscateStrings.cpp.obj
 0001:00004690       ?do_widen@?$ctype@D@std@@MBEDD@Z 00405690 f i ObfuscateStrings.cpp.obj
 0001:000046a0       ?do_widen@?$ctype@D@std@@MBEPBDPBD0PAD@Z 004056a0 f i ObfuscateStrings.cpp.obj
 0001:000046c0       ?do_widen@?$ctype@_W@std@@MBEPBDPBD0PA_W@Z 004056c0 f i ObfuscateStrings.cpp.obj
 0001:00004750       ?do_widen@?$ctype@_W@std@@MBE_WD@Z 00405750 f i ObfuscateStrings.cpp.obj
 0001:000047a0       ?equivalent@error_category@std@@UBE_NABVerror_code@2@H@Z 004057a0 f i ObfuscateStrings.cpp.obj
 0001:000047d0       ?equivalent@error_category@std@@UBE_NHABVerror_condition@2@@Z 004057d0 f i ObfuscateStrings.cpp.obj
 0001:00004810       ?erase@?$basic_string@DU?$char_traits@D@std@@V?$allocator@D@2@@std@@QAEAAV12@II@Z 00405810 f i ObfuscateStrings.cpp.obj
 0001:000048b0       ?erase@?$basic_string@_WU?$char_traits@_W@std@@V?$allocator@_W@2@@std@@QAEAAV12@II@Z 004058b0 f i ObfuscateStrings.cpp.obj
 0001:00004960       ?falsename@?$numpunct@D@std@@QBE?AV?$basic_string@DU?$char_traits@D@std@@V?$allocator@D@2@@2@XZ 00405960 f i ObfuscateStrings.cpp.obj
 0001:00004980       ?flush@?$basic_ostream@DU?$char_traits@D@std@@@std@@QAEAAV12@XZ 00405980 f i ObfuscateStrings.cpp.obj
 0001:00004980       ?flush@?$basic_ostream@_WU?$char_traits@_W@std@@@std@@QAEAAV12@XZ 00405980 f i ObfuscateStrings.cpp.obj
 0001:00004a40       ?getloc@ios_base@std@@QBE?AVlocale@2@XZ 00405a40 f i ObfuscateStrings.cpp.obj
 0001:00004aa0       ?grouping@?$numpunct@D@std@@QBE?AV?$basic_string@DU?$char_traits@D@std@@V?$allocator@D@2@@2@XZ 00405aa0 f i ObfuscateStrings.cpp.obj
 0001:00004ac0       ?insert@?$basic_string@DU?$char_traits@D@std@@V?$allocator@D@2@@std@@QAEAAV12@IID@Z 00405ac0 f i ObfuscateStrings.cpp.obj
 0001:00004bc0       ?message@_Generic_error_category@std@@UBE?AV?$basic_string@DU?$char_traits@D@std@@V?$allocator@D@2@@2@H@Z 00405bc0 f i ObfuscateStrings.cpp.obj
 0001:00004c30       ?message@_Iostream_error_category@std@@UBE?AV?$basic_string@DU?$char_traits@D@std@@V?$allocator@D@2@@2@H@Z 00405c30 f i ObfuscateStrings.cpp.obj
 0001:00004c80       ?message@error_code@std@@QBE?AV?$basic_string@DU?$char_traits@D@std@@V?$allocator@D@2@@2@XZ 00405c80 f i ObfuscateStrings.cpp.obj
 0001:00004cb0       ?name@_Iostream_error_category@std@@UBEPBDXZ 00405cb0 f i ObfuscateStrings.cpp.obj
 0001:00004cc0       ?parseWinCommand@@YAXAAUarguments@@@Z 00405cc0 f   ObfuscateStrings.cpp.obj
 0001:00004d60       ?truename@?$numpunct@D@std@@QBE?AV?$basic_string@DU?$char_traits@D@std@@V?$allocator@D@2@@2@XZ 00405d60 f i ObfuscateStrings.cpp.obj
 0001:00004d80       ?what@exception@std@@UBEPBDXZ 00405d80 f i ObfuscateStrings.cpp.obj
 0001:00004d90       ___local_stdio_printf_options 00405d90 f i ObfuscateStrings.cpp.obj
 0001:00004da0       _main                      00405da0 f   ObfuscateStrings.cpp.obj
 0001:00004f20       _sprintf_s                 00405f20 f i ObfuscateStrings.cpp.obj
 0001:00004f50       ??$?H_WU?$char_traits@_W@std@@V?$allocator@_W@1@@std@@YA?AV?$basic_string@_WU?$char_traits@_W@std@@V?$allocator@_W@2@@0@ABV10@PB_W@Z 00405f50 f i StringScanner.cpp.obj
 0001:00005060       ??$_Uninitialized_copy_al_unchecked1@PBU?$pair@HH@std@@PAU12@V?$allocator@U?$pair@HH@std@@@2@@std@@YAPAU?$pair@HH@0@PBU10@0PAU10@AAU?$_Wrap_alloc@V?$allocator@U?$pair@HH@std@@@std@@@0@U_General_ptr_iterator_tag@0@U_Any_tag@0@@Z 00406060 f i StringScanner.cpp.obj
 0001:00005060       ??$_Uninitialized_move_al_unchecked1@PAU?$pair@HH@std@@PAU12@V?$allocator@U?$pair@HH@std@@@2@@std@@YAPAU?$pair@HH@0@PAU10@00AAU?$_Wrap_alloc@V?$allocator@U?$pair@HH@std@@@std@@@0@U_General_ptr_iterator_tag@0@U_Any_tag@0@@Z 00406060 f i StringScanner.cpp.obj
 0001:000050a0       ?imbue@?$basic_streambuf@DU?$char_traits@D@std@@@std@@MAEXABVlocale@2@@Z 004060a0 f i StringScanner.cpp.obj
 0001:000050a0       ??$destroy@PAD@?$_Wrap_alloc@V?$allocator@D@std@@@std@@QAEXPAPAD@Z 004060a0 f i StringScanner.cpp.obj
 0001:000050a0       ??$destroy@PA_W@?$_Wrap_alloc@V?$allocator@_W@std@@@std@@QAEXPAPA_W@Z 004060a0 f i StringScanner.cpp.obj
 0001:000050a0       ?imbue@?$basic_streambuf@_WU?$char_traits@_W@std@@@std@@MAEXABVlocale@2@@Z 004060a0 f i libcpmt:wcout.obj
 0001:000050b0       ??$use_facet@V?$codecvt@DDU_Mbstatet@@@std@@@std@@YAABV?$codecvt@DDU_Mbstatet@@@0@ABVlocale@0@@Z 004060b0 f i StringScanner.cpp.obj
 0001:000051e0       ??0?$_Wrap_alloc@V?$allocator@D@std@@@std@@QAE@XZ 004061e0 f i StringScanner.cpp.obj
 0001:000051e0       ??0?$_Wrap_alloc@V?$allocator@_W@std@@@std@@QAE@XZ 004061e0 f i StringScanner.cpp.obj
 0001:000051f0       ??0?$basic_fstream@DU?$char_traits@D@std@@@std@@QAE@ABV?$basic_string@_WU?$char_traits@_W@std@@V?$allocator@_W@2@@1@HH@Z 004061f0 f i StringScanner.cpp.obj
 0001:00005360       ??0?$basic_iostream@DU?$char_traits@D@std@@@std@@QAE@PAV?$basic_streambuf@DU?$char_traits@D@std@@@1@@Z 00406360 f i StringScanner.cpp.obj
 0001:00005440       ??0?$basic_streambuf@DU?$char_traits@D@std@@@std@@IAE@XZ 00406440 f i StringScanner.cpp.obj
 0001:00005510       ??0?$fpos@U_Mbstatet@@@std@@QAE@U_Mbstatet@@_J@Z 00406510 f i StringScanner.cpp.obj
 0001:00005540       ??0?$vector@U?$pair@HH@std@@V?$allocator@U?$pair@HH@std@@@2@@std@@QAE@ABV01@@Z 00406540 f i StringScanner.cpp.obj
 0001:00005620       ??0StringScanner@@QAE@XZ   00406620 f   StringScanner.cpp.obj
 0001:00005630       ??1?$basic_filebuf@DU?$char_traits@D@std@@@std@@UAE@XZ 00406630 f i StringScanner.cpp.obj
 0001:000056e0       ??1?$basic_fstream@DU?$char_traits@D@std@@@std@@UAE@XZ 004066e0 f i StringScanner.cpp.obj
 0001:00005760       ??1?$basic_ios@DU?$char_traits@D@std@@@std@@UAE@XZ 00406760 f i StringScanner.cpp.obj
 0001:000057b0       ??1?$basic_iostream@DU?$char_traits@D@std@@@std@@UAE@XZ 004067b0 f i StringScanner.cpp.obj
 0001:00005810       ??1?$basic_istream@DU?$char_traits@D@std@@@std@@UAE@XZ 00406810 f i StringScanner.cpp.obj
 0001:00005830       ??1arguments@@QAE@XZ       00406830 f i ObfuscateStrings.cpp.obj
 0001:00005830       ??1?$basic_string@_WU?$char_traits@_W@std@@V?$allocator@_W@2@@std@@QAE@XZ 00406830 f i StringScanner.cpp.obj
 0001:00005870       ??1?$vector@U?$pair@HH@std@@V?$allocator@U?$pair@HH@std@@@2@@std@@QAE@XZ 00406870 f i StringScanner.cpp.obj
 0001:00005870       ?_Tidy@?$vector@U?$pair@HH@std@@V?$allocator@U?$pair@HH@std@@@2@@std@@IAEXXZ 00406870 f i StringScanner.cpp.obj
 0001:000058a0       ??1sentry@?$basic_istream@DU?$char_traits@D@std@@@std@@QAE@XZ 004068a0 f i StringScanner.cpp.obj
 0001:000058f0       ??_D?$basic_fstream@DU?$char_traits@D@std@@@std@@QAEXXZ 004068f0 f i StringScanner.cpp.obj
 0001:00005950       ??_D?$basic_iostream@DU?$char_traits@D@std@@@std@@QAEXXZ 00406950 f i StringScanner.cpp.obj
 0001:000059ea       ??_E?$basic_fstream@DU?$char_traits@D@std@@@std@@$4PPPPPPPM@A@AEPAXI@Z 004069ea f i StringScanner.cpp.obj
 0001:000059f2       ??_E?$basic_iostream@DU?$char_traits@D@std@@@std@@$4PPPPPPPM@A@AEPAXI@Z 004069f2 f i StringScanner.cpp.obj
 0001:000059fa       ??_E?$basic_istream@DU?$char_traits@D@std@@@std@@$4PPPPPPPM@A@AEPAXI@Z 004069fa f i StringScanner.cpp.obj
 0001:00005a02       ??_E?$basic_ostream@DU?$char_traits@D@std@@@std@@$4PPPPPPPM@A@AEPAXI@Z 00406a02 f i StringScanner.cpp.obj
 0001:00005a10       ??_E?$basic_filebuf@DU?$char_traits@D@std@@@std@@UAEPAXI@Z 00406a10 f i StringScanner.cpp.obj
 0001:00005a10       ??_G?$basic_filebuf@DU?$char_traits@D@std@@@std@@UAEPAXI@Z 00406a10 f i StringScanner.cpp.obj
 0001:00005a30       ??_G?$basic_fstream@DU?$char_traits@D@std@@@std@@UAEPAXI@Z 00406a30 f i StringScanner.cpp.obj
 0001:00005a30       ??_E?$basic_fstream@DU?$char_traits@D@std@@@std@@UAEPAXI@Z 00406a30 f i StringScanner.cpp.obj
 0001:00005aa0       ??_E?$basic_ios@DU?$char_traits@D@std@@@std@@UAEPAXI@Z 00406aa0 f i StringScanner.cpp.obj
 0001:00005aa0       ??_G?$basic_ios@DU?$char_traits@D@std@@@std@@UAEPAXI@Z 00406aa0 f i StringScanner.cpp.obj
 0001:00005b00       ??_G?$basic_iostream@DU?$char_traits@D@std@@@std@@UAEPAXI@Z 00406b00 f i StringScanner.cpp.obj
 0001:00005b00       ??_E?$basic_iostream@DU?$char_traits@D@std@@@std@@UAEPAXI@Z 00406b00 f i StringScanner.cpp.obj
 0001:00005b30       ??_E?$basic_istream@DU?$char_traits@D@std@@@std@@UAEPAXI@Z 00406b30 f i StringScanner.cpp.obj
 0001:00005b30       ??_G?$basic_istream@DU?$char_traits@D@std@@@std@@UAEPAXI@Z 00406b30 f i StringScanner.cpp.obj
 0001:00005bb0       ??_E?$basic_ostream@DU?$char_traits@D@std@@@std@@UAEPAXI@Z 00406bb0 f i StringScanner.cpp.obj
 0001:00005bb0       ??_G?$basic_ostream@DU?$char_traits@D@std@@@std@@UAEPAXI@Z 00406bb0 f i StringScanner.cpp.obj
 0001:00005c30       ??_E?$basic_streambuf@DU?$char_traits@D@std@@@std@@UAEPAXI@Z 00406c30 f i StringScanner.cpp.obj
 0001:00005c30       ??_G?$basic_streambuf@DU?$char_traits@D@std@@@std@@UAEPAXI@Z 00406c30 f i StringScanner.cpp.obj
 0001:00005cc0       ??_E?$num_put@DV?$ostreambuf_iterator@DU?$char_traits@D@std@@@std@@@std@@MAEPAXI@Z 00406cc0 f i ObfuscateStrings.cpp.obj
 0001:00005cc0       ??_G?$num_put@DV?$ostreambuf_iterator@DU?$char_traits@D@std@@@std@@@std@@MAEPAXI@Z 00406cc0 f i ObfuscateStrings.cpp.obj
 0001:00005cc0       ??_E?$codecvt@DDU_Mbstatet@@@std@@MAEPAXI@Z 00406cc0 f i StringScanner.cpp.obj
 0001:00005cc0       ??_G?$codecvt@DDU_Mbstatet@@@std@@MAEPAXI@Z 00406cc0 f i StringScanner.cpp.obj
 0001:00005cf0       ??_Eios_base@std@@UAEPAXI@Z 00406cf0 f i StringScanner.cpp.obj
 0001:00005cf0       ??_Gios_base@std@@UAEPAXI@Z 00406cf0 f i StringScanner.cpp.obj
 0001:00005d50       ?FillError@StringScanner@@AAEXPB_W@Z 00406d50 f   StringScanner.cpp.obj
 0001:00005e60       ?Obfuscate@StringScanner@@AAEXPAEI@Z 00406e60 f   StringScanner.cpp.obj
 0001:00005ec0       ?Obfuscate@StringScanner@@AAEXPAGI@Z 00406ec0 f   StringScanner.cpp.obj
 0001:00005f20       ?ObfuscateStringInBuffer@StringScanner@@AAEXPADAAV?$vector@U?$pair@HH@std@@V?$allocator@U?$pair@HH@std@@@2@@std@@@Z 00406f20 f   StringScanner.cpp.obj
 0001:00005fe0       ?ObfuscateWStringInBuffer@StringScanner@@AAEXPADV?$vector@U?$pair@HH@std@@V?$allocator@U?$pair@HH@std@@@2@@std@@@Z 00406fe0 f   StringScanner.cpp.obj
 0001:00006170       ?Scan@StringScanner@@QAE_NABUarguments@@@Z 00407170 f   StringScanner.cpp.obj
 0001:00006910       ?_Endwrite@?$basic_filebuf@DU?$char_traits@D@std@@@std@@IAE_NXZ 00407910 f i StringScanner.cpp.obj
 0001:00006a70       ?_Getcat@?$codecvt@DDU_Mbstatet@@@std@@SAIPAPBVfacet@locale@2@PBV42@@Z 00407a70 f i StringScanner.cpp.obj
 0001:00006b20       ?_Gnavail@?$basic_streambuf@DU?$char_traits@D@std@@@std@@IBE_JXZ 00407b20 f i StringScanner.cpp.obj
 0001:00006b40       ?_Grow@?$basic_string@_WU?$char_traits@_W@std@@V?$allocator@_W@2@@std@@QAE_NI_N@Z 00407b40 f i StringScanner.cpp.obj
 0001:00006bc0       ?_Init@?$basic_filebuf@DU?$char_traits@D@std@@@std@@IAEXPAU_iobuf@@W4_Initfl@12@@Z 00407bc0 f i StringScanner.cpp.obj
 0001:00006cb0       ?_Init@?$basic_streambuf@DU?$char_traits@D@std@@@std@@IAEXXZ 00407cb0 f i StringScanner.cpp.obj
 0001:00006d10       ?_Init@ios_base@std@@IAEXXZ 00407d10 f i StringScanner.cpp.obj
 0001:00006de0       ?_Ipfx@?$basic_istream@DU?$char_traits@D@std@@@std@@QAE_N_N@Z 00407de0 f i StringScanner.cpp.obj
 0001:00006f90       ?_Lock@?$basic_filebuf@DU?$char_traits@D@std@@@std@@UAEXXZ 00407f90 f i StringScanner.cpp.obj
 0001:00006fa0       ?_Pnavail@?$basic_streambuf@DU?$char_traits@D@std@@@std@@IBE_JXZ 00407fa0 f i StringScanner.cpp.obj
 0001:00006fc0       ?_Reallocate@?$vector@U?$pair@HH@std@@V?$allocator@U?$pair@HH@std@@@2@@std@@IAEXI@Z 00407fc0 f i StringScanner.cpp.obj
 0001:00007080       ?_Reserve@?$vector@U?$pair@HH@std@@V?$allocator@U?$pair@HH@std@@@2@@std@@IAEXI@Z 00408080 f i StringScanner.cpp.obj
 0001:000070f0       ?_Reset_back@?$basic_filebuf@DU?$char_traits@D@std@@@std@@AAEXXZ 004080f0 f i StringScanner.cpp.obj
 0001:00007120       ?_Set_back@?$basic_filebuf@DU?$char_traits@D@std@@@std@@AAEXXZ 00408120 f i StringScanner.cpp.obj
 0001:00007160       ?_Tidy@?$basic_string@_WU?$char_traits@_W@std@@V?$allocator@_W@2@@std@@QAEX_NI@Z 00408160 f i StringScanner.cpp.obj
 0001:000071c0       ?_Unlock@?$basic_filebuf@DU?$char_traits@D@std@@@std@@UAEXXZ 004081c0 f i StringScanner.cpp.obj
 0001:000071d0       ?allocate@?$allocator@U?$pair@HH@std@@@std@@QAEPAU?$pair@HH@2@I@Z 004081d0 f i StringScanner.cpp.obj
 0001:00007240       ?append@?$basic_string@_WU?$char_traits@_W@std@@V?$allocator@_W@2@@std@@QAEAAV12@ABV12@II@Z 00408240 f i StringScanner.cpp.obj
 0001:00007350       ?append@?$basic_string@_WU?$char_traits@_W@std@@V?$allocator@_W@2@@std@@QAEAAV12@PB_WI@Z 00408350 f i StringScanner.cpp.obj
 0001:00007430       ?close@?$basic_filebuf@DU?$char_traits@D@std@@@std@@QAEPAV12@XZ 00408430 f i StringScanner.cpp.obj
 0001:000074f0       ?deallocate@?$_Wrap_alloc@V?$allocator@U?$pair@HH@std@@@std@@@std@@QAEXPAU?$pair@HH@2@I@Z 004084f0 f i StringScanner.cpp.obj
 0001:00007550       ?do_encoding@codecvt_base@std@@MBEHXZ 00408550 f i StringScanner.cpp.obj
 0001:00007550       ?do_max_length@codecvt_base@std@@MBEHXZ 00408550 f i StringScanner.cpp.obj
 0001:00007560       ?do_out@?$codecvt@DDU_Mbstatet@@@std@@MBEHAAU_Mbstatet@@PBD1AAPBDPAD3AAPAD@Z 00408560 f i StringScanner.cpp.obj
 0001:00007560       ?do_in@?$codecvt@DDU_Mbstatet@@@std@@MBEHAAU_Mbstatet@@PBD1AAPBDPAD3AAPAD@Z 00408560 f i StringScanner.cpp.obj
 0001:00007580       ?do_length@?$codecvt@DDU_Mbstatet@@@std@@MBEHAAU_Mbstatet@@PBD1I@Z 00408580 f i StringScanner.cpp.obj
 0001:000075a0       ?do_unshift@?$codecvt@DDU_Mbstatet@@@std@@MBEHAAU_Mbstatet@@PAD1AAPAD@Z 004085a0 f i StringScanner.cpp.obj
 0001:000075b0       ?getloc@?$basic_streambuf@DU?$char_traits@D@std@@@std@@QBE?AVlocale@2@XZ 004085b0 f i StringScanner.cpp.obj
 0001:00007610       ?imbue@?$basic_filebuf@DU?$char_traits@D@std@@@std@@MAEXABVlocale@2@@Z 00408610 f i StringScanner.cpp.obj
 0001:00007650       ?init@?$basic_ios@DU?$char_traits@D@std@@@std@@IAEXPAV?$basic_streambuf@DU?$char_traits@D@std@@@2@_N@Z 00408650 f i StringScanner.cpp.obj
 0001:00007720       ?open@?$basic_filebuf@DU?$char_traits@D@std@@@std@@QAEPAV12@PB_WHH@Z 00408720 f i StringScanner.cpp.obj
 0001:00007800       ?overflow@?$basic_filebuf@DU?$char_traits@D@std@@@std@@MAEHH@Z 00408800 f i StringScanner.cpp.obj
 0001:00007a10       ?overflow@?$basic_streambuf@DU?$char_traits@D@std@@@std@@MAEHH@Z 00408a10 f i StringScanner.cpp.obj
 0001:00007a10       ?pbackfail@?$basic_streambuf@DU?$char_traits@D@std@@@std@@MAEHH@Z 00408a10 f i StringScanner.cpp.obj
 0001:00007a20       ?pbackfail@?$basic_filebuf@DU?$char_traits@D@std@@@std@@MAEHH@Z 00408a20 f i StringScanner.cpp.obj
 0001:00007ab0       ?read@?$basic_istream@DU?$char_traits@D@std@@@std@@QAEAAV12@PAD_J@Z 00408ab0 f i StringScanner.cpp.obj
 0001:00007c00       ?seekg@?$basic_istream@DU?$char_traits@D@std@@@std@@QAEAAV12@_JH@Z 00408c00 f i StringScanner.cpp.obj
 0001:00007d10       ?seekoff@?$basic_filebuf@DU?$char_traits@D@std@@@std@@MAE?AV?$fpos@U_Mbstatet@@@2@_JHH@Z 00408d10 f i StringScanner.cpp.obj
 0001:00007e20       ?seekoff@?$basic_streambuf@DU?$char_traits@D@std@@@std@@MAE?AV?$fpos@U_Mbstatet@@@2@_JHH@Z 00408e20 f i StringScanner.cpp.obj
 0001:00007e50       ?seekpos@?$basic_filebuf@DU?$char_traits@D@std@@@std@@MAE?AV?$fpos@U_Mbstatet@@@2@V32@H@Z 00408e50 f i StringScanner.cpp.obj
 0001:00007f40       ?seekpos@?$basic_streambuf@DU?$char_traits@D@std@@@std@@MAE?AV?$fpos@U_Mbstatet@@@2@V32@H@Z 00408f40 f i StringScanner.cpp.obj
 0001:00007f70       ?setbuf@?$basic_filebuf@DU?$char_traits@D@std@@@std@@MAEPAV?$basic_streambuf@DU?$char_traits@D@std@@@2@PAD_J@Z 00408f70 f i StringScanner.cpp.obj
 0001:00007fc0       ?setbuf@?$basic_streambuf@DU?$char_traits@D@std@@@std@@MAEPAV12@PAD_J@Z 00408fc0 f i StringScanner.cpp.obj
 0001:00007fc0       ?setbuf@?$basic_streambuf@_WU?$char_traits@_W@std@@@std@@MAEPAV12@PA_W_J@Z 00408fc0 f i libcpmt:wcout.obj
 0001:00007fd0       ?showmanyc@?$basic_streambuf@DU?$char_traits@D@std@@@std@@MAE_JXZ 00408fd0 f i StringScanner.cpp.obj
 0001:00007fd0       ?showmanyc@?$basic_streambuf@_WU?$char_traits@_W@std@@@std@@MAE_JXZ 00408fd0 f i libcpmt:wcout.obj
 0001:00007fe0       ?snextc@?$basic_streambuf@DU?$char_traits@D@std@@@std@@QAEHXZ 00408fe0 f i StringScanner.cpp.obj
 0001:00008050       ?sync@?$basic_filebuf@DU?$char_traits@D@std@@@std@@MAEHXZ 00409050 f i StringScanner.cpp.obj
 0001:00008080       ?tellg@?$basic_istream@DU?$char_traits@D@std@@@std@@QAE?AV?$fpos@U_Mbstatet@@@2@XZ 00409080 f i StringScanner.cpp.obj
 0001:00008160       ?uflow@?$basic_filebuf@DU?$char_traits@D@std@@@std@@MAEHXZ 00409160 f i StringScanner.cpp.obj
 0001:00008350       ?uflow@?$basic_streambuf@DU?$char_traits@D@std@@@std@@MAEHXZ 00409350 f i StringScanner.cpp.obj
 0001:00008380       ?underflow@?$basic_filebuf@DU?$char_traits@D@std@@@std@@MAEHXZ 00409380 f i StringScanner.cpp.obj
 0001:000083c0       ?underflow@?$basic_streambuf@DU?$char_traits@D@std@@@std@@MAEHXZ 004093c0 f i StringScanner.cpp.obj
 0001:000083d0       ?write@?$basic_ostream@DU?$char_traits@D@std@@@std@@QAEAAV12@PBD_J@Z 004093d0 f i StringScanner.cpp.obj
 0001:00008550       ?xsgetn@?$basic_streambuf@DU?$char_traits@D@std@@@std@@MAE_JPAD_J@Z 00409550 f i StringScanner.cpp.obj
 0001:00008650       ?xsputn@?$basic_streambuf@DU?$char_traits@D@std@@@std@@MAE_JPBD_J@Z 00409650 f i StringScanner.cpp.obj
 0001:000087f0       ?ShiftBits@ObfuscateStrings@Origin@@YAEE@Z 004097f0 f   shiftbits.cpp.obj
 0001:00008810       ?ShiftBits@ObfuscateStrings@Origin@@YAGG@Z 00409810 f   shiftbits.cpp.obj
 0001:00008829       ??0_Init_locks@std@@QAE@XZ 00409829 f   libcpmt:xlock.obj
 0001:00008856       ??0_Lockit@std@@QAE@H@Z    00409856 f   libcpmt:xlock.obj
 0001:00008887       ??1_Init_locks@std@@QAE@XZ 00409887 f   libcpmt:xlock.obj
 0001:000088ae       ??1_Lockit@std@@QAE@XZ     004098ae f   libcpmt:xlock.obj
 0001:000088cd       ?uncaught_exception@std@@YA_NXZ 004098cd f   libcpmt:uncaught.obj
 0001:000088d2       ??0bad_alloc@std@@QAE@ABV01@@Z 004098d2 f i libcpmt:xthrow.obj
 0001:000088ed       ??0bad_alloc@std@@QAE@XZ   004098ed f i libcpmt:xthrow.obj
 0001:00008905       ??0exception@std@@QAE@QBD@Z 00409905 f i libcpmt:xthrow.obj
 0001:0000893c       ??0length_error@std@@QAE@ABV01@@Z 0040993c f i libcpmt:xthrow.obj
 0001:00008957       ??0length_error@std@@QAE@PBD@Z 00409957 f i libcpmt:xthrow.obj
 0001:00008978       ??0logic_error@std@@QAE@ABV01@@Z 00409978 f i libcpmt:xthrow.obj
 0001:00008993       ??0out_of_range@std@@QAE@ABV01@@Z 00409993 f i libcpmt:xthrow.obj
 0001:000089ae       ??0out_of_range@std@@QAE@PBD@Z 004099ae f i libcpmt:xthrow.obj
 0001:000089cf       ?__scrt_throw_std_bad_alloc@@YAXXZ 004099cf f   LIBCMT:throw_bad_alloc.obj
 0001:000089cf       ?_Xbad_alloc@std@@YAXXZ    004099cf f   libcpmt:xthrow.obj
 0001:000089ec       ?_Xlength_error@std@@YAXPBD@Z 004099ec f   libcpmt:xthrow.obj
 0001:00008a0c       ?_Xout_of_range@std@@YAXPBD@Z 00409a0c f   libcpmt:xthrow.obj
 0001:00008a2c       __Getctype                 00409a2c f   libcpmt:_tolower.obj
 0001:00008a97       __Tolower                  00409a97 f   libcpmt:_tolower.obj
 0001:00008b91       __Getcvt                   00409b91 f   libcpmt:xwctomb.obj
 0001:00008bfe       __Wcrtomb                  00409bfe f   libcpmt:xwctomb.obj
 0001:00008c5c       __Mbrtowc                  00409c5c f   libcpmt:xmbtowc.obj
 0001:00008daf       __Toupper                  00409daf f   libcpmt:_toupper.obj
 0001:00008ea9       __Getwctype                00409ea9 f   libcpmt:xgetwctype.obj
 0001:00008ecd       __Getwctypes               00409ecd f   libcpmt:xgetwctype.obj
 0001:00008eec       __Towlower                 00409eec f   libcpmt:xtowlower.obj
 0001:00008f4e       __Towupper                 00409f4e f   libcpmt:xtowupper.obj
 0001:00008fb4       ??0_Locimp@locale@std@@AAE@_N@Z 00409fb4 f i libcpmt:locale0.obj
 0001:00008ffa       ??1_Fac_node@std@@QAE@XZ   00409ffa f i libcpmt:locale0.obj
 0001:00009059       ??1_Fac_tidy_reg_t@std@@QAE@XZ 0040a059 f i libcpmt:locale0.obj
 0001:00009080       ??1_Locimp@locale@std@@MAE@XZ 0040a080 f i libcpmt:locale0.obj
 0001:000090db       ??4?$_Yarn@D@std@@QAEAAV01@PBD@Z 0040a0db f i libcpmt:locale0.obj
 0001:0000912f       ??_G_Locimp@locale@std@@MAEPAXI@Z 0040a12f f i libcpmt:locale0.obj
 0001:0000912f       ??_E_Locimp@locale@std@@MAEPAXI@Z 0040a12f f i libcpmt:locale0.obj
 0001:00009151       ?_Facet_Register@std@@YAXPAV_Facet_base@1@@Z 0040a151 f   libcpmt:locale0.obj
 0001:0000917f       ?_Getgloballocale@locale@std@@CAPAV_Locimp@12@XZ 0040a17f f   libcpmt:locale0.obj
 0001:00009185       ?_Init@locale@std@@CAPAV_Locimp@12@_N@Z 0040a185 f   libcpmt:locale0.obj
 0001:00009213       ?_Locimp_dtor@_Locimp@locale@std@@CAXPAV123@@Z 0040a213 f   libcpmt:locale0.obj
 0001:00009288       ?_Locinfo_ctor@_Locinfo@std@@SAXPAV12@PBD@Z 0040a288 f   libcpmt:locale0.obj
 0001:000092d3       ?_Locinfo_dtor@_Locinfo@std@@SAXPAV12@@Z 0040a2d3 f   libcpmt:locale0.obj
 0001:000092f5       ?_New_Locimp@_Locimp@locale@std@@CAPAV123@_N@Z 0040a2f5 f   libcpmt:locale0.obj
 0001:0000931a       ?_Setgloballocale@locale@std@@CAXPAX@Z 0040a31a f   libcpmt:locale0.obj
 0001:00009342       __Deletegloballocale       0040a342 f   libcpmt:locale0.obj
 0001:000093a7       ?_Deallocate@std@@YAXPAXII@Z 0040a3a7 f i libcpmt:syserror.obj
 0001:000093f2       ?_Syserror_map@std@@YAPBDH@Z 0040a3f2 f   libcpmt:syserror.obj
 0001:00009417       ?copy@?$char_traits@_W@std@@SAPA_WPA_WPB_WI@Z 0040a417 f i libcpmt:syserror.obj
 0001:00009439       ??0?$basic_ostream@DU?$char_traits@D@std@@@std@@QAE@PAV?$basic_streambuf@DU?$char_traits@D@std@@@1@_N@Z 0040a439 f i libcpmt:cout.obj
 0001:000094a0       ??0_Init_cout@std@@QAE@XZ  0040a4a0 f i libcpmt:cout.obj
 0001:000094f9       ??0bad_cast@std@@QAE@XZ    0040a4f9 f i libcpmt:cout.obj
 0001:00009511       ??Bid@locale@std@@QAEIXZ   0040a511 f i libcpmt:cout.obj
 0001:00009548       ??_D?$basic_ostream@DU?$char_traits@D@std@@@std@@QAEXXZ 0040a548 f i libcpmt:cout.obj
 0001:000095a8       ?_Getfacet@locale@std@@QBEPBVfacet@12@I@Z 0040a5a8 f i libcpmt:cout.obj
 0001:000095e5       ?_Tidy@?$basic_string@DU?$char_traits@D@std@@V?$allocator@D@2@@std@@QAEX_NI@Z 0040a5e5 f i libcpmt:cout.obj
 0001:0000963a       ?c_str@locale@std@@QBEPBDXZ 0040a63a f i libcpmt:cout.obj
 0001:00009652       ??$_Fgetc@_W@std@@YA_NAA_WPAU_iobuf@@@Z 0040a652 f i libcpmt:wcout.obj
 0001:00009679       ??$_Fputc@_W@std@@YA_N_WPAU_iobuf@@@Z 0040a679 f i libcpmt:wcout.obj
 0001:00009698       ??$_Ungetc@_W@std@@YA_NAB_WPAU_iobuf@@@Z 0040a698 f i libcpmt:wcout.obj
 0001:000096bb       ??$use_facet@V?$codecvt@_WDU_Mbstatet@@@std@@@std@@YAABV?$codecvt@_WDU_Mbstatet@@@0@ABVlocale@0@@Z 0040a6bb f i libcpmt:wcout.obj
 0001:00009758       ??0?$basic_ostream@_WU?$char_traits@_W@std@@@std@@QAE@PAV?$basic_streambuf@_WU?$char_traits@_W@std@@@1@_N@Z 0040a758 f i libcpmt:wcout.obj
 0001:000097bf       ??0?$basic_streambuf@_WU?$char_traits@_W@std@@@std@@IAE@XZ 0040a7bf f i libcpmt:wcout.obj
 0001:00009806       ??0?$codecvt@_WDU_Mbstatet@@@std@@QAE@ABV_Locinfo@1@I@Z 0040a806 f i libcpmt:wcout.obj
 0001:0000983f       ??0_Init_wcout@std@@QAE@XZ 0040a83f f i libcpmt:wcout.obj
 0001:00009898       ??1?$basic_filebuf@_WU?$char_traits@_W@std@@@std@@UAE@XZ 0040a898 f i libcpmt:wcout.obj
 0001:000098f2       ??1?$basic_ios@_WU?$char_traits@_W@std@@@std@@UAE@XZ 0040a8f2 f i libcpmt:wcout.obj
 0001:00009934       ??1?$basic_streambuf@_WU?$char_traits@_W@std@@@std@@UAE@XZ 0040a934 f i libcpmt:wcout.obj
 0001:00009955       ??_D?$basic_ostream@_WU?$char_traits@_W@std@@@std@@QAEXXZ 0040a955 f i libcpmt:wcout.obj
 0001:000099b5       ??_E?$basic_ostream@_WU?$char_traits@_W@std@@@std@@$4PPPPPPPM@A@AEPAXI@Z 0040a9b5 f i libcpmt:wcout.obj
 0001:000099bd       ??_E?$basic_filebuf@_WU?$char_traits@_W@std@@@std@@UAEPAXI@Z 0040a9bd f i libcpmt:wcout.obj
 0001:000099bd       ??_G?$basic_filebuf@_WU?$char_traits@_W@std@@@std@@UAEPAXI@Z 0040a9bd f i libcpmt:wcout.obj
 0001:000099df       ??_G?$basic_ios@_WU?$char_traits@_W@std@@@std@@UAEPAXI@Z 0040a9df f i libcpmt:wcout.obj
 0001:000099df       ??_E?$basic_ios@_WU?$char_traits@_W@std@@@std@@UAEPAXI@Z 0040a9df f i libcpmt:wcout.obj
 0001:00009a39       ??_G?$basic_ostream@_WU?$char_traits@_W@std@@@std@@UAEPAXI@Z 0040aa39 f i libcpmt:wcout.obj
 0001:00009a39       ??_E?$basic_ostream@_WU?$char_traits@_W@std@@@std@@UAEPAXI@Z 0040aa39 f i libcpmt:wcout.obj
 0001:00009a5e       ??_E?$basic_streambuf@_WU?$char_traits@_W@std@@@std@@UAEPAXI@Z 0040aa5e f i libcpmt:wcout.obj
 0001:00009a5e       ??_G?$basic_streambuf@_WU?$char_traits@_W@std@@@std@@UAEPAXI@Z 0040aa5e f i libcpmt:wcout.obj
 0001:00009a80       ??_E?$codecvt@_WDU_Mbstatet@@@std@@MAEPAXI@Z 0040aa80 f i libcpmt:wcout.obj
 0001:00009a80       ??_G?$codecvt@_WDU_Mbstatet@@@std@@MAEPAXI@Z 0040aa80 f i libcpmt:wcout.obj
 0001:00009aa3       ?_Endwrite@?$basic_filebuf@_WU?$char_traits@_W@std@@@std@@IAE_NXZ 0040aaa3 f i libcpmt:wcout.obj
 0001:00009bc8       ?_Getcat@?$codecvt@_WDU_Mbstatet@@@std@@SAIPAPBVfacet@locale@2@PBV42@@Z 0040abc8 f i libcpmt:wcout.obj
 0001:00009c2e       ?_Init@?$basic_filebuf@_WU?$char_traits@_W@std@@@std@@IAEXPAU_iobuf@@W4_Initfl@12@@Z 0040ac2e f i libcpmt:wcout.obj
 0001:00009c66       ?_Init@?$basic_streambuf@_WU?$char_traits@_W@std@@@std@@IAEXXZ 0040ac66 f i libcpmt:wcout.obj
 0001:00009caa       ?_Initcvt@?$basic_filebuf@_WU?$char_traits@_W@std@@@std@@IAEXPBV?$codecvt@_WDU_Mbstatet@@@2@@Z 0040acaa f i libcpmt:wcout.obj
 0001:00009ce0       ?_Lock@?$basic_filebuf@_WU?$char_traits@_W@std@@@std@@UAEXXZ 0040ace0 f i libcpmt:wcout.obj
 0001:00009cf0       ?_Reset_back@?$basic_filebuf@_WU?$char_traits@_W@std@@@std@@AAEXXZ 0040acf0 f i libcpmt:wcout.obj
 0001:00009d15       ?_Set_back@?$basic_filebuf@_WU?$char_traits@_W@std@@@std@@AAEXXZ 0040ad15 f i libcpmt:wcout.obj
 0001:00009d50       ?_Unlock@?$basic_filebuf@_WU?$char_traits@_W@std@@@std@@UAEXXZ 0040ad50 f i libcpmt:wcout.obj
 0001:00009d60       ?close@?$basic_filebuf@_WU?$char_traits@_W@std@@@std@@QAEPAV12@XZ 0040ad60 f i libcpmt:wcout.obj
 0001:00009dbf       ?do_always_noconv@?$codecvt@_WDU_Mbstatet@@@std@@MBE_NXZ 0040adbf f i libcpmt:wcout.obj
 0001:00009dc2       ?do_in@?$codecvt@_WDU_Mbstatet@@@std@@MBEHAAU_Mbstatet@@PBD1AAPBDPA_W3AAPA_W@Z 0040adc2 f i libcpmt:wcout.obj
 0001:00009e64       ?do_length@?$codecvt@_WDU_Mbstatet@@@std@@MBEHAAU_Mbstatet@@PBD1I@Z 0040ae64 f i libcpmt:wcout.obj
 0001:00009ee8       ?do_max_length@?$codecvt@_WDU_Mbstatet@@@std@@MBEHXZ 0040aee8 f i libcpmt:wcout.obj
 0001:00009eec       ?do_out@?$codecvt@_WDU_Mbstatet@@@std@@MBEHAAU_Mbstatet@@PB_W1AAPB_WPAD3AAPAD@Z 0040aeec f i libcpmt:wcout.obj
 0001:00009fd2       ?do_unshift@?$codecvt@_WDU_Mbstatet@@@std@@MBEHAAU_Mbstatet@@PAD1AAPAD@Z 0040afd2 f i libcpmt:wcout.obj
 0001:0000a064       ?imbue@?$basic_filebuf@_WU?$char_traits@_W@std@@@std@@MAEXABVlocale@2@@Z 0040b064 f i libcpmt:wcout.obj
 0001:0000a080       ?init@?$basic_ios@_WU?$char_traits@_W@std@@@std@@IAEXPAV?$basic_streambuf@_WU?$char_traits@_W@std@@@2@_N@Z 0040b080 f i libcpmt:wcout.obj
 0001:0000a0ca       ?overflow@?$basic_filebuf@_WU?$char_traits@_W@std@@@std@@MAEGG@Z 0040b0ca f i libcpmt:wcout.obj
 0001:0000a270       ?pbackfail@?$basic_streambuf@_WU?$char_traits@_W@std@@@std@@MAEGG@Z 0040b270 f i libcpmt:wcout.obj
 0001:0000a270       ?overflow@?$basic_streambuf@_WU?$char_traits@_W@std@@@std@@MAEGG@Z 0040b270 f i libcpmt:wcout.obj
 0001:0000a278       ?pbackfail@?$basic_filebuf@_WU?$char_traits@_W@std@@@std@@MAEGG@Z 0040b278 f i libcpmt:wcout.obj
 0001:0000a30c       ?seekoff@?$basic_filebuf@_WU?$char_traits@_W@std@@@std@@MAE?AV?$fpos@U_Mbstatet@@@2@_JHH@Z 0040b30c f i libcpmt:wcout.obj
 0001:0000a3cd       ?seekoff@?$basic_streambuf@_WU?$char_traits@_W@std@@@std@@MAE?AV?$fpos@U_Mbstatet@@@2@_JHH@Z 0040b3cd f i libcpmt:wcout.obj
 0001:0000a3f7       ?seekpos@?$basic_filebuf@_WU?$char_traits@_W@std@@@std@@MAE?AV?$fpos@U_Mbstatet@@@2@V32@H@Z 0040b3f7 f i libcpmt:wcout.obj
 0001:0000a4b7       ?seekpos@?$basic_streambuf@_WU?$char_traits@_W@std@@@std@@MAE?AV?$fpos@U_Mbstatet@@@2@V32@H@Z 0040b4b7 f i libcpmt:wcout.obj
 0001:0000a4e1       ?setbuf@?$basic_filebuf@_WU?$char_traits@_W@std@@@std@@MAEPAV?$basic_streambuf@_WU?$char_traits@_W@std@@@2@PA_W_J@Z 0040b4e1 f i libcpmt:wcout.obj
 0001:0000a532       ?sync@?$basic_filebuf@_WU?$char_traits@_W@std@@@std@@MAEHXZ 0040b532 f i libcpmt:wcout.obj
 0001:0000a580       __get_startup_commit_mode  0040b580 f i LIBCMT:commit_mode.obj
 0001:0000a580       __get_startup_thread_locale_mode 0040b580 f i LIBCMT:thread_locale.obj
 0001:0000a580       __get_startup_new_mode     0040b580 f i LIBCMT:new_mode.obj
 0001:0000a580       ?do_encoding@?$codecvt@_WDU_Mbstatet@@@std@@MBEHXZ 0040b580 f i libcpmt:wcout.obj
 0001:0000a580       ?sync@?$basic_streambuf@DU?$char_traits@D@std@@@std@@MAEHXZ 0040b580 f i StringScanner.cpp.obj
 0001:0000a580       __matherr                  0040b580 f i LIBCMT:matherr.obj
 0001:0000a580       ___scrt_initialize_winrt   0040b580 f i LIBCMT:utility_desktop.obj
 0001:0000a580       ?sync@?$basic_streambuf@_WU?$char_traits@_W@std@@@std@@MAEHXZ 0040b580 f i libcpmt:wcout.obj
 0001:0000a583       ?uflow@?$basic_filebuf@_WU?$char_traits@_W@std@@@std@@MAEGXZ 0040b583 f i libcpmt:wcout.obj
 0001:0000a732       ?uflow@?$basic_streambuf@_WU?$char_traits@_W@std@@@std@@MAEGXZ 0040b732 f i libcpmt:wcout.obj
 0001:0000a768       ?underflow@?$basic_filebuf@_WU?$char_traits@_W@std@@@std@@MAEGXZ 0040b768 f i libcpmt:wcout.obj
 0001:0000a7bc       ?underflow@?$basic_streambuf@_WU?$char_traits@_W@std@@@std@@MAEGXZ 0040b7bc f i libcpmt:wcout.obj
 0001:0000a7c2       ?widen@?$basic_ios@_WU?$char_traits@_W@std@@@std@@QBE_WD@Z 0040b7c2 f i libcpmt:wcout.obj
 0001:0000a80b       ?xsgetn@?$basic_streambuf@_WU?$char_traits@_W@std@@@std@@MAE_JPA_W_J@Z 0040b80b f i libcpmt:wcout.obj
 0001:0000a907       ?xsputn@?$basic_streambuf@_WU?$char_traits@_W@std@@@std@@MAE_JPB_W_J@Z 0040b907 f i libcpmt:wcout.obj
 0001:0000aa85       ?_Addstd@ios_base@std@@SAXPAV12@@Z 0040ba85 f   libcpmt:ios.obj
 0001:0000aad6       ?_Callfns@ios_base@std@@AAEXW4event@12@@Z 0040bad6 f i libcpmt:ios.obj
 0001:0000ab08       ?_Ios_base_dtor@ios_base@std@@CAXPAV12@@Z 0040bb08 f   libcpmt:ios.obj
 0001:0000ab48       ?_Tidy@ios_base@std@@AAEXXZ 0040bb48 f i libcpmt:ios.obj
 0001:0000ab90       ??$_Xfiopen@_W@std@@YAPAU_iobuf@@PB_WHH@Z 0040bb90 f i libcpmt:fiopen.obj
 0001:0000ac32       ?_Fiopen@std@@YAPAU_iobuf@@PB_WHH@Z 0040bc32 f   libcpmt:fiopen.obj
 0001:0000ac3b       ?_Xfsopen@std@@YAPAU_iobuf@@PB_WHH@Z 0040bc3b f   libcpmt:fiopen.obj
 0001:0000ac58       __Mtxdst                   0040bc58 f   libcpmt:xmtx.obj
 0001:0000ac66       __Mtxinit                  0040bc66 f   libcpmt:xmtx.obj
 0001:0000ac7d       __Mtxlock                  0040bc7d f   libcpmt:xmtx.obj
 0001:0000ac8b       __Mtxunlock                0040bc8b f   libcpmt:xmtx.obj
 0001:0000ac99       ___crtLCMapStringA         0040bc99 f   libcpmt:StlLCMapStringA.obj
 0001:0000ae9c       __freea_crt                0040be9c f i libcpmt:StlLCMapStringA.obj
 0001:0000aeba       ___crtLCMapStringW         0040beba f   libcpmt:StlLCMapStringW.obj
 0001:0000aef4       ??1_Init_atexit@@QAE@XZ    0040bef4 f i libcpmt:iosptrs.obj
 0001:0000af58       ?_Atexit@@YAXP6AXXZ@Z      0040bf58 f   libcpmt:iosptrs.obj
 0001:0000b332       ___crtInitializeCriticalSectionEx 0040c332 f   libcpmt:winapisupp.obj
 0001:0000b36a       _GetTableIndexFromLocaleName 0040c36a f   libcpmt:winapinls.obj
 0001:0000b3b8       ___crtDownlevelLocaleNameToLCID 0040c3b8 f   libcpmt:winapinls.obj
 0001:0000b3e2       ___crtLCMapStringEx        0040c3e2 f   libcpmt:winapinls.obj
 0001:0000b438       ___wcsnicmp_ascii          0040c438 f   libcpmt:winapinls.obj
 0001:0000b4ab       ??2@YAPAXI@Z               0040c4ab f   LIBCMT:new_scalar.obj
 0001:0000b4de       ??3@YAXPAX@Z               0040c4de f   LIBCMT:delete_scalar.obj
 0001:0000b4e3       ??3@YAXPAXI@Z              0040c4e3 f   LIBCMT:delete_scalar_size.obj
 0001:0000b4f1       ??_V@YAXPAX@Z              0040c4f1 f   LIBCMT:delete_array.obj
 0001:0000b53a       ___scrt_acquire_startup_lock 0040c53a f   LIBCMT:utility.obj
 0001:0000b56f       ___scrt_initialize_crt     0040c56f f   LIBCMT:utility.obj
 0001:0000b5a8       ___scrt_initialize_onexit_tables 0040c5a8 f   LIBCMT:utility.obj
 0001:0000b63f       ___scrt_is_nonwritable_in_current_image 0040c63f f   LIBCMT:utility.obj
 0001:0000b6c9       ___scrt_release_startup_lock 0040c6c9 f   LIBCMT:utility.obj
 0001:0000b6e6       ___scrt_uninitialize_crt   0040c6e6 f   LIBCMT:utility.obj
 0001:0000b70e       __onexit                   0040c70e f   LIBCMT:utility.obj
 0001:0000b749       _atexit                    0040c749 f   LIBCMT:utility.obj
 0001:0000b83a       __Init_thread_footer       0040c83a f   LIBCMT:thread_safe_statics.obj
 0001:0000b879       __Init_thread_header       0040c879 f   LIBCMT:thread_safe_statics.obj
 0001:0000b8bf       __Init_thread_lock         0040c8bf f   LIBCMT:thread_safe_statics.obj
 0001:0000b8cb       __Init_thread_notify       0040c8cb f   LIBCMT:thread_safe_statics.obj
 0001:0000b90c       __Init_thread_unlock       0040c90c f   LIBCMT:thread_safe_statics.obj
 0001:0000b918       __Init_thread_wait         0040c918 f   LIBCMT:thread_safe_statics.obj
 0001:0000b97d       @__security_check_cookie@4 0040c97d f   LIBCMT:_secchk_.obj
 0001:0000b98e       ??_Gtype_info@@UAEPAXI@Z   0040c98e f i LIBCMT:std_type_info_static.obj
 0001:0000b98e       ??_Etype_info@@UAEPAXI@Z   0040c98e f i LIBCMT:std_type_info_static.obj
 0001:0000b9b1       ??_U@YAPAXI@Z              0040c9b1 f   LIBCMT:new_array.obj
 0001:0000bbe7       _mainCRTStartup            0040cbe7 f   LIBCMT:exe_main.obj
 0001:0000bbf1       @_guard_check_icall@4      0040cbf1 f i LIBCMT:checkcfg.obj
 0001:0000bbf7       __EH_epilog3               0040cbf7 f   LIBCMT:ehprolg3.obj
 0001:0000bc0c       __EH_epilog3_GS            0040cc0c f   LIBCMT:ehprolg3.obj
 0001:0000bc1d       __EH_prolog3               0040cc1d f   LIBCMT:ehprolg3.obj
 0001:0000bc51       __EH_prolog3_GS            0040cc51 f   LIBCMT:ehprolg3.obj
 0001:0000bc88       __EH_prolog3_catch         0040cc88 f   LIBCMT:ehprolg3.obj
 0001:0000bcc0       __alloca_probe_16          0040ccc0 f   LIBCMT:alloca16.obj
 0001:0000bcd6       __alloca_probe_8           0040ccd6     LIBCMT:alloca16.obj
 0001:0000bcf0       __allmul                   0040ccf0 f   LIBCMT:llmul.obj
 0001:0000bd30       __aulldiv                  0040cd30 f   LIBCMT:ulldiv.obj
 0001:0000bd98       ??0bad_array_new_length@std@@QAE@ABV01@@Z 0040cd98 f i LIBCMT:throw_bad_alloc.obj
 0001:0000bdb3       ??0bad_array_new_length@std@@QAE@XZ 0040cdb3 f i LIBCMT:throw_bad_alloc.obj
 0001:0000bdcb       ??_Ebad_array_new_length@std@@UAEPAXI@Z 0040cdcb f i LIBCMT:throw_bad_alloc.obj
 0001:0000bdcb       ??_Eout_of_range@std@@UAEPAXI@Z 0040cdcb f i libcpmt:xthrow.obj
 0001:0000bdcb       ??_Elength_error@std@@UAEPAXI@Z 0040cdcb f i libcpmt:xthrow.obj
 0001:0000bdcb       ??_Gbad_exception@std@@UAEPAXI@Z 0040cdcb f i libvcruntime:frame.obj
 0001:0000bdcb       ??_Ebad_exception@std@@UAEPAXI@Z 0040cdcb f i libvcruntime:frame.obj
 0001:0000bdcb       ??_Gbad_alloc@std@@UAEPAXI@Z 0040cdcb f i libcpmt:xthrow.obj
 0001:0000bdcb       ??_Ebad_alloc@std@@UAEPAXI@Z 0040cdcb f i libcpmt:xthrow.obj
 0001:0000bdcb       ??_Gbad_array_new_length@std@@UAEPAXI@Z 0040cdcb f i LIBCMT:throw_bad_alloc.obj
 0001:0000bdcb       ??_Glogic_error@std@@UAEPAXI@Z 0040cdcb f i libcpmt:xthrow.obj
 0001:0000bdcb       ??_Gout_of_range@std@@UAEPAXI@Z 0040cdcb f i libcpmt:xthrow.obj
 0001:0000bdcb       ??_Elogic_error@std@@UAEPAXI@Z 0040cdcb f i libcpmt:xthrow.obj
 0001:0000bdcb       ??_Glength_error@std@@UAEPAXI@Z 0040cdcb f i libcpmt:xthrow.obj
 0001:0000bdf8       ?__scrt_throw_std_bad_array_new_length@@YAXXZ 0040cdf8 f   LIBCMT:throw_bad_alloc.obj
 0001:0000be15       ___isa_available_init      0040ce15 f   LIBCMT:_cpu_disp_.obj
 0001:0000bfaf       __get_startup_argv_mode    0040cfaf f   LIBCMT:argv_mode.obj
 0001:0000bfb3       ___scrt_is_ucrt_dll_in_use 0040cfb3 f   LIBCMT:ucrt_detection.obj
 0001:0000bfbf       ___scrt_fastfail           0040cfbf f   LIBCMT:utility_desktop.obj
 0001:0000c0da       ___scrt_set_unhandled_exception_filter 0040d0da f   LIBCMT:utility_desktop.obj
 0001:0000c0e6       ___scrt_unhandled_exception_filter@4 0040d0e6 f   LIBCMT:utility_desktop.obj
 0001:0000c127       __crt_debugger_hook        0040d127 f   LIBCMT:utility_desktop.obj
 0001:0000c130       __SEH_prolog4              0040d130 f   LIBCMT:_sehprolg4_.obj
 0001:0000c176       __SEH_epilog4              0040d176 f   LIBCMT:_sehprolg4_.obj
 0001:0000c18b       ___raise_securityfailure   0040d18b f   LIBCMT:gs_report.obj
 0001:0000c1b3       ___report_gsfailure        0040d1b3 f   LIBCMT:gs_report.obj
 0001:0000c2ae       ___report_rangecheckfailure 0040d2ae f   LIBCMT:gs_report.obj
 0001:0000c2ba       ___report_securityfailure  0040d2ba f   LIBCMT:gs_report.obj
 0001:0000c38a       ___security_init_cookie    0040d38a f   LIBCMT:gs_support.obj
 0001:0000c426       __get_startup_file_mode    0040d426 f   LIBCMT:file_mode.obj
 0001:0000c42c       ?__scrt_initialize_type_info@@YAXXZ 0040d42c f   LIBCMT:tncleanup.obj
 0001:0000c438       __initialize_default_precision 0040d438 f   LIBCMT:default_precision.obj
 0001:0000c460       __initialize_invalid_parameter_handler 0040d460 f   LIBCMT:invalid_parameter_handler.obj
 0001:0000c460       ??1?$_String_alloc@U?$_String_base_types@_WV?$allocator@_W@std@@@std@@@std@@QAE@XZ 0040d460 f   StringScanner.cpp.obj
 0001:0000c460       ___except_validate_context_record 0040d460 f   libvcruntime:jbcxrval.obj
 0001:0000c460       @_guard_check_icall_nop@4  0040d460 f   LIBCMT:guard_support.obj
 0001:0000c460       ?_Lock@?$basic_streambuf@DU?$char_traits@D@std@@@std@@UAEXXZ 0040d460 f   StringScanner.cpp.obj
 0001:0000c460       ??1?$_String_alloc@U?$_String_base_types@DV?$allocator@D@std@@@std@@@std@@QAE@XZ 0040d460 f   StringScanner.cpp.obj
 0001:0000c460       ?_Lock@?$basic_streambuf@_WU?$char_traits@_W@std@@@std@@UAEXXZ 0040d460 f   libcpmt:wcout.obj
 0001:0000c460       ___except_validate_jump_buffer 0040d460 f   libvcruntime:jbcxrval.obj
 0001:0000c460       ?_Unlock@?$basic_streambuf@DU?$char_traits@D@std@@@std@@UAEXXZ 0040d460 f   StringScanner.cpp.obj
 0001:0000c460       ??1StringScanner@@QAE@XZ   0040d460 f   StringScanner.cpp.obj
 0001:0000c460       ?_Unlock@?$basic_streambuf@_WU?$char_traits@_W@std@@@std@@UAEXXZ 0040d460 f   libcpmt:wcout.obj
 0001:0000c460       __initialize_denormal_control 0040d460 f   LIBCMT:denormal_control.obj
 0001:0000c461       ___local_stdio_scanf_options 0040d461 f i LIBCMT:default_local_stdio_options.obj
 0001:0000c467       ___scrt_initialize_default_local_stdio_options 0040d467 f   LIBCMT:default_local_stdio_options.obj
 0001:0000c484       ___scrt_is_user_matherr_present 0040d484 f   LIBCMT:matherr_detection.obj
 0001:0000c490       ___scrt_get_dyn_tls_init_callback 0040d490 f   LIBCMT:dyn_tls_init.obj
 0001:0000c496       ___scrt_get_dyn_tls_dtor_callback 0040d496 f   LIBCMT:dyn_tls_dtor.obj
 0001:0000c49c       __RTC_Initialize           0040d49c f   LIBCMT:_initsect_.obj
 0001:0000c4c7       __RTC_Terminate            0040d4c7 f   LIBCMT:_initsect_.obj
 0001:0000c500       __alloca_probe             0040d500 f   LIBCMT:chkstk.obj
 0001:0000c500       __chkstk                   0040d500 f   LIBCMT:chkstk.obj
 0001:0000c52e       _IsProcessorFeaturePresent@4 0040d52e f   kernel32:KERNEL32.dll
 0001:0000c534       __get_purecall_handler     0040d534 f   libvcruntime:purevirt.obj
 0001:0000c553       __purecall                 0040d553 f   libvcruntime:purevirt.obj
 0001:0000c56e       ___DestructExceptionObject 0040d56e f   libvcruntime:frame.obj
 0001:0000c602       ??0bad_exception@std@@QAE@ABV01@@Z 0040d602 f i libvcruntime:frame.obj
 0001:0000c61d       ??0bad_exception@std@@QAE@XZ 0040d61d f i libvcruntime:frame.obj
 0001:0000ce4e       ?_CallMemberFunction0@@YGXQAX0@Z 0040de4e f i libvcruntime:frame.obj
 0001:0000ce4e       ?_CallMemberFunction2@@YGXQAX00H@Z 0040de4e f i libvcruntime:frame.obj
 0001:0000ce4e       ?_CallMemberFunction1@@YGXQAX00@Z 0040de4e f i libvcruntime:frame.obj
 0001:0000ce55       ___AdjustPointer           0040de55 f   libvcruntime:frame.obj
 0001:0000ce7a       ___BuildCatchObject        0040de7a f   libvcruntime:frame.obj
 0001:0000cf09       ___BuildCatchObjectHelper  0040df09 f   libvcruntime:frame.obj
 0001:0000d037       ___FrameUnwindFilter       0040e037 f   libvcruntime:frame.obj
 0001:0000d07c       ___FrameUnwindToState      0040e07c f   libvcruntime:frame.obj
 0001:0000d144       ___InternalCxxFrameHandler 0040e144 f   libvcruntime:frame.obj
 0001:0000d240       ___TypeMatch               0040e240 f   libvcruntime:frame.obj
 0001:0000d2ce       ___std_terminate           0040e2ce f   libvcruntime:frame.obj
 0001:0000d2d3       ___uncaught_exception      0040e2d3 f   libvcruntime:frame.obj
 0001:0000d2e0       _memmove                   0040e2e0 f   libvcruntime:memmove.obj
 0001:0000d854       ___std_exception_copy      0040e854 f   libvcruntime:std_exception.obj
 0001:0000d8b7       ___std_exception_destroy   0040e8b7 f   libvcruntime:std_exception.obj
 0001:0000d8d6       __CxxThrowException@8      0040e8d6 f   libvcruntime:throw.obj
 0001:0000d944       ?_CallCatchBlock2@@YAPAXPAUEHRegistrationNode@@PBU_s_FuncInfo@@PAXHK@Z 0040e944 f   libvcruntime:trnsctrl.obj
 0001:0000d9a4       ?_CallSETranslator@@YAHPAUEHExceptionRecord@@PAUEHRegistrationNode@@PAX2PBU_s_FuncInfo@@H1@Z 0040e9a4 f   libvcruntime:trnsctrl.obj
 0001:0000da81       ?_GetRangeOfTrysToCheck@@YAPBU_s_TryBlockMapEntry@@PBU_s_FuncInfo@@HHPAI1@Z 0040ea81 f   libvcruntime:trnsctrl.obj
 0001:0000daf9       ?_JumpToContinuation@@YGXPAXPAUEHRegistrationNode@@@Z 0040eaf9 f   libvcruntime:trnsctrl.obj
 0001:0000db2b       ?_UnwindNestedFrames@@YGXPAUEHRegistrationNode@@PAUEHExceptionRecord@@@Z 0040eb2b f   libvcruntime:trnsctrl.obj
 0001:0000db80       __CatchGuardHandler        0040eb80 f   libvcruntime:trnsctrl.obj
 0001:0000dbb1       __CreateFrameInfo          0040ebb1 f   libvcruntime:trnsctrl.obj
 0001:0000dbd5       __FindAndUnlinkFrame       0040ebd5 f   libvcruntime:trnsctrl.obj
 0001:0000dc1f       __IsExceptionObjectToBeDestroyed 0040ec1f f   libvcruntime:trnsctrl.obj
 0001:0000dc45       __TranslatorGuardHandler   0040ec45 f   libvcruntime:trnsctrl.obj
 0001:0000dce4       ___CxxFrameHandler3        0040ece4 f   libvcruntime:trnsctrl.obj
 0001:0000dd20       _memcpy                    0040ed20 f   libvcruntime:memcpy.obj
 0001:0000e2a0       _memset                    0040f2a0 f   libvcruntime:memset.obj
 0001:0000e400       _memchr                    0040f400 f   libvcruntime:memchr.obj
 0001:0000e4ad       _memcmp                    0040f4ad f   libvcruntime:_memcmp_.obj
 0001:0000fc2d       ___vcrt_initialize         00410c2d f   libvcruntime:initialization.obj
 0001:0000fc56       ___vcrt_uninitialize       00410c56 f   libvcruntime:initialization.obj
 0001:0000fcc0       __except_handler4          00410cc0 f   libvcruntime:_chandler4_.obj
 0001:0000fe26       ??$__crt_fast_encode_pointer@PAX@@YAPAXQAX@Z 00410e26 f i libvcruntime:winapi_downlevel.obj
 0001:0000fe26       ??$__crt_fast_encode_pointer@P6GHPAU_RTL_CONDITION_VARIABLE@@PAU_RTL_CRITICAL_SECTION@@K@Z@@YAP6GHPAU_RTL_CONDITION_VARIABLE@@PAU_RTL_CRITICAL_SECTION@@K@ZQ6GH01K@Z@Z 00410e26 f i LIBCMT:thread_safe_statics.obj
 0001:0000fe26       ??$__crt_fast_encode_pointer@PAP6AXXZ@@YAPAP6AXXZQAP6AXXZ@Z 00410e26 f i LIBCMT:utility.obj
 0001:0000fe26       ??$__crt_fast_encode_pointer@P6GXPAU_RTL_CONDITION_VARIABLE@@@Z@@YAP6GXPAU_RTL_CONDITION_VARIABLE@@@ZQ6GX0@Z@Z 00410e26 f i LIBCMT:thread_safe_statics.obj
 0001:0000ff64       ___vcrt_FlsAlloc           00410f64 f   libvcruntime:winapi_downlevel.obj
 0001:0000ff9e       ___vcrt_FlsFree            00410f9e f   libvcruntime:winapi_downlevel.obj
 0001:0000ffd8       ___vcrt_FlsGetValue        00410fd8 f   libvcruntime:winapi_downlevel.obj
 0001:00010012       ___vcrt_FlsSetValue        00411012 f   libvcruntime:winapi_downlevel.obj
 0001:0001004f       ___vcrt_InitializeCriticalSectionEx 0041104f f   libvcruntime:winapi_downlevel.obj
 0001:00010095       ___vcrt_initialize_winapi_thunks 00411095 f   libvcruntime:winapi_downlevel.obj
 0001:000100cf       ___vcrt_uninitialize_winapi_thunks 004110cf f   libvcruntime:winapi_downlevel.obj
 0001:00010101       ___std_type_info_compare   00411101 f   libvcruntime:std_type_info.obj
 0001:0001013d       ___vcrt_initialize_pure_virtual_call_handler 0041113d f   libvcruntime:purevirt_data.obj
 0001:0001015a       _unexpected                0041115a f   libvcruntime:unexpected.obj
 0001:00010176       ___vcrt_freefls@4          00411176 f   libvcruntime:per_thread_data.obj
 0001:00010192       ___vcrt_getptd             00411192 f   libvcruntime:per_thread_data.obj
 0001:000101a0       ___vcrt_getptd_noexit      004111a0 f   libvcruntime:per_thread_data.obj
 0001:00010232       ___vcrt_initialize_ptd     00411232 f   libvcruntime:per_thread_data.obj
 0001:00010265       ___vcrt_uninitialize_ptd   00411265 f   libvcruntime:per_thread_data.obj
 0001:00010280       __CallSettingFrame@12      00411280 f   libvcruntime:lowhelpr.obj
 0001:000102a7       __NLG_Return               004112a7     libvcruntime:lowhelpr.obj
 0001:000102cc       ___vcrt_initialize_locks   004112cc f   libvcruntime:locks.obj
 0001:00010308       ___vcrt_uninitialize_locks 00411308 f   libvcruntime:locks.obj
 0001:00010340       __local_unwind4            00411340 f   libvcruntime:_exsup4_.obj
 0001:00010416       __seh_longjmp_unwind4@4    00411416 f   libvcruntime:_exsup4_.obj
 0001:0001043e       @_EH4_CallFilterFunc@8     0041143e f   libvcruntime:_exsup4_.obj
 0001:00010455       @_EH4_TransferToHandler@8  00411455 f   libvcruntime:_exsup4_.obj
 0001:0001046e       @_EH4_GlobalUnwind2@8      0041146e f   libvcruntime:_exsup4_.obj
 0001:00010487       @_EH4_LocalUnwind@16       00411487 f   libvcruntime:_exsup4_.obj
 0001:000104a0       __global_unwind2           004114a0 f   libvcruntime:_exsup_.obj
 0001:00010505       __local_unwind2            00411505 f   libvcruntime:_exsup_.obj
 0001:00010589       __abnormal_termination     00411589 f   libvcruntime:_exsup_.obj
 0001:000105ac       __NLG_Notify1              004115ac f   libvcruntime:_exsup_.obj
 0001:000105b5       __NLG_Notify               004115b5 f   libvcruntime:_exsup_.obj
 0001:000105cc       __NLG_Dispatch2            004115cc     libvcruntime:_exsup_.obj
 0001:000105cc       __NLG_Dispatch             004115cc     libvcruntime:_exsup_.obj
 0001:000105d4       __NLG_Call                 004115d4 f   libvcruntime:_exsup_.obj
 0001:000105d6       __NLG_Return2              004115d6     libvcruntime:_exsup_.obj
 0001:000105d7       ___acrt_call_reportfault   004115d7 f   libucrt:invalid_parameter.obj
 0001:00010712       ___acrt_initialize_invalid_parameter_handler 00411712 f   libucrt:invalid_parameter.obj
 0001:00010721       __invalid_parameter        00411721 f   libucrt:invalid_parameter.obj
 0001:0001079c       __invalid_parameter_noinfo 0041179c f   libucrt:invalid_parameter.obj
 0001:000107ac       __invalid_parameter_noinfo_noreturn 004117ac f   libucrt:invalid_parameter.obj
 0001:000107c9       __invoke_watson            004117c9 f   libucrt:invalid_parameter.obj
 0001:000107fc       _frexp                     004117fc f   libucrt:frexp.obj
 0001:000108f8       _calloc                    004118f8 f   libucrt:calloc.obj
 0001:00010903       _free                      00411903 f   libucrt:free.obj
 0001:00010b18       ??$count@D@formatting_buffer@__crt_stdio_output@@QBEIXZ 00411b18 f i libucrt:output.obj
 0001:00010b30       ??$ensure_buffer_is_big_enough@D@formatting_buffer@__crt_stdio_output@@QAE_NI@Z 00411b30 f i libucrt:output.obj
 0001:00010bb6       ??$is_wide_character_specifier@D@__crt_stdio_output@@YA_N_KDW4length_modifier@0@@Z 00411bb6 f i libucrt:output.obj
 0001:00010bf6       ??$scratch_data@D@formatting_buffer@__crt_stdio_output@@QAEPADXZ 00411bf6 f i libucrt:output.obj
 0001:00010c14       ??$type_case_integer_parse_into_buffer@I@?$output_processor@DV?$string_output_adapter@D@__crt_stdio_output@@V?$format_validation_base@DV?$string_output_adapter@D@__crt_stdio_output@@@2@@__crt_stdio_output@@AAEXII_N@Z 00411c14 f i libucrt:output.obj
 0001:00010c86       ??$type_case_integer_parse_into_buffer@_K@?$output_processor@DV?$string_output_adapter@D@__crt_stdio_output@@V?$format_validation_base@DV?$string_output_adapter@D@__crt_stdio_output@@@2@@__crt_stdio_output@@AAEX_KI_N@Z 00411c86 f i libucrt:output.obj
 0001:00010d0d       ??$write_multiple_characters@V?$string_output_adapter@D@__crt_stdio_output@@D@__crt_stdio_output@@YAXABV?$string_output_adapter@D@0@DHQAH@Z 00411d0d f i libucrt:output.obj
 0001:00010d39       ??0?$common_data@D@__crt_stdio_output@@IAE@XZ 00411d39 f i libucrt:output.obj
 0001:00010d80       ??0?$output_adapter_data@DV?$string_output_adapter@D@__crt_stdio_output@@@__crt_stdio_output@@IAE@ABV?$string_output_adapter@D@1@_KQBDQAU__crt_locale_pointers@@QAD@Z 00411d80 f i libucrt:output.obj
 0001:00010dbc       ??0_LocaleUpdate@@QAE@QAU__crt_locale_pointers@@@Z 00411dbc f i libucrt:output.obj
 0001:00010e3f       ??1formatting_buffer@__crt_stdio_output@@QAE@XZ 00411e3f f i libucrt:output.obj
 0001:00010e59       ??4?$__crt_unique_heap_ptr@DU__crt_internal_free_policy@@@@QAEAAV0@$$QAV0@@Z 00411e59 f i libucrt:output.obj
 0001:00010e7d       ?crop_zeroes@__crt_stdio_output@@YAXPADQAU__crt_locale_pointers@@@Z 00411e7d f i libucrt:output.obj
 0001:00010ed4       ?find_next_state@?$output_processor@DV?$string_output_adapter@D@__crt_stdio_output@@V?$format_validation_base@DV?$string_output_adapter@D@__crt_stdio_output@@@2@@__crt_stdio_output@@ABE?AW4state@2@DW432@@Z 00411ed4 f i libucrt:output.obj
 0001:00010f09       ?force_decimal_point@__crt_stdio_output@@YAXPADQAU__crt_locale_pointers@@@Z 00411f09 f i libucrt:output.obj
 0001:00010f65       ?parse_int_from_format_string@?$output_processor@DV?$string_output_adapter@D@__crt_stdio_output@@V?$format_validation_base@DV?$string_output_adapter@D@__crt_stdio_output@@@2@@__crt_stdio_output@@AAE_NQAH@Z 00411f65 f i libucrt:output.obj
 0001:00010fdd       ?process@?$output_processor@DV?$string_output_adapter@D@__crt_stdio_output@@V?$format_validation_base@DV?$string_output_adapter@D@__crt_stdio_output@@@2@@__crt_stdio_output@@QAEHXZ 00411fdd f i libucrt:output.obj
 0001:00011105       ?state_case_flag@?$output_processor@DV?$string_output_adapter@D@__crt_stdio_output@@V?$format_validation_base@DV?$string_output_adapter@D@__crt_stdio_output@@@2@@__crt_stdio_output@@AAE_NXZ 00412105 f i libucrt:output.obj
 0001:00011142       ?state_case_normal@?$output_processor@DV?$string_output_adapter@D@__crt_stdio_output@@V?$format_validation_base@DV?$string_output_adapter@D@__crt_stdio_output@@@2@@__crt_stdio_output@@AAE_NXZ 00412142 f i libucrt:output.obj
 0001:00011161       ?state_case_normal_common@?$output_processor@DV?$string_output_adapter@D@__crt_stdio_output@@V?$format_validation_base@DV?$string_output_adapter@D@__crt_stdio_output@@@2@@__crt_stdio_output@@AAE_NXZ 00412161 f i libucrt:output.obj
 0001:0001118b       ?state_case_normal_tchar@?$output_processor@DV?$string_output_adapter@D@__crt_stdio_output@@V?$format_validation_base@DV?$string_output_adapter@D@__crt_stdio_output@@@2@@__crt_stdio_output@@AAE_ND@Z 0041218b f i libucrt:output.obj
 0001:000111ec       ?state_case_precision@?$output_processor@DV?$string_output_adapter@D@__crt_stdio_output@@V?$format_validation_base@DV?$string_output_adapter@D@__crt_stdio_output@@@2@@__crt_stdio_output@@AAE_NXZ 004121ec f i libucrt:output.obj
 0001:00011214       ?state_case_size@?$output_processor@DV?$string_output_adapter@D@__crt_stdio_output@@V?$format_validation_base@DV?$string_output_adapter@D@__crt_stdio_output@@@2@@__crt_stdio_output@@AAE_NXZ 00412214 f i libucrt:output.obj
 0001:0001137d       ?state_case_type@?$output_processor@DV?$string_output_adapter@D@__crt_stdio_output@@V?$format_validation_base@DV?$string_output_adapter@D@__crt_stdio_output@@@2@@__crt_stdio_output@@AAE_NXZ 0041237d f i libucrt:output.obj
 0001:000115ad       ?state_case_width@?$output_processor@DV?$string_output_adapter@D@__crt_stdio_output@@V?$format_validation_base@DV?$string_output_adapter@D@__crt_stdio_output@@@2@@__crt_stdio_output@@AAE_NXZ 004125ad f i libucrt:output.obj
 0001:000115d8       ?to_integer_size@__crt_stdio_output@@YAIW4length_modifier@1@@Z 004125d8 f i libucrt:output.obj
 0001:00011634       ?type_case_Z@?$output_processor@DV?$string_output_adapter@D@__crt_stdio_output@@V?$format_validation_base@DV?$string_output_adapter@D@__crt_stdio_output@@@2@@__crt_stdio_output@@AAE_NXZ 00412634 f i libucrt:output.obj
 0001:00011697       ?type_case_a@?$output_processor@DV?$string_output_adapter@D@__crt_stdio_output@@V?$format_validation_base@DV?$string_output_adapter@D@__crt_stdio_output@@@2@@__crt_stdio_output@@AAE_NXZ 00412697 f i libucrt:output.obj
 0001:000117f1       ?type_case_c_tchar@?$output_processor@DV?$string_output_adapter@D@__crt_stdio_output@@V?$format_validation_base@DV?$string_output_adapter@D@__crt_stdio_output@@@2@@__crt_stdio_output@@AAE_ND@Z 004127f1 f i libucrt:output.obj
 0001:00011881       ?type_case_integer@?$output_processor@DV?$string_output_adapter@D@__crt_stdio_output@@V?$format_validation_base@DV?$string_output_adapter@D@__crt_stdio_output@@@2@@__crt_stdio_output@@AAE_NI_N@Z 00412881 f i libucrt:output.obj
 0001:000119cf       ?type_case_n@?$output_processor@DV?$string_output_adapter@D@__crt_stdio_output@@V?$format_validation_base@DV?$string_output_adapter@D@__crt_stdio_output@@@2@@__crt_stdio_output@@AAE_NXZ 004129cf f i libucrt:output.obj
 0001:00011a43       ?type_case_o@?$output_processor@DV?$string_output_adapter@D@__crt_stdio_output@@V?$format_validation_base@DV?$string_output_adapter@D@__crt_stdio_output@@@2@@__crt_stdio_output@@AAE_NXZ 00412a43 f i libucrt:output.obj
 0001:00011a62       ?type_case_p@?$output_processor@DV?$string_output_adapter@D@__crt_stdio_output@@V?$format_validation_base@DV?$string_output_adapter@D@__crt_stdio_output@@@2@@__crt_stdio_output@@AAE_NXZ 00412a62 f i libucrt:output.obj
 0001:00011a7a       ?type_case_s@?$output_processor@DV?$string_output_adapter@D@__crt_stdio_output@@V?$format_validation_base@DV?$string_output_adapter@D@__crt_stdio_output@@@2@@__crt_stdio_output@@AAE_NXZ 00412a7a f i libucrt:output.obj
 0001:00011aed       ?validate_and_update_state_at_end_of_format_string@?$format_validation_base@DV?$string_output_adapter@D@__crt_stdio_output@@@__crt_stdio_output@@IBE_NXZ 00412aed f i libucrt:output.obj
 0001:00011b0f       ?write_character@?$string_output_adapter@D@__crt_stdio_output@@QBE_NDQAH@Z 00412b0f f i libucrt:output.obj
 0001:00011b51       ?write_stored_string_tchar@?$output_processor@DV?$string_output_adapter@D@__crt_stdio_output@@V?$format_validation_base@DV?$string_output_adapter@D@__crt_stdio_output@@@2@@__crt_stdio_output@@AAE_ND@Z 00412b51 f i libucrt:output.obj
 0001:00011bfa       ?write_string@?$string_output_adapter@D@__crt_stdio_output@@QBEXQBDHQAHAAV__crt_deferred_errno_cache@@@Z 00412bfa f i libucrt:output.obj
 0001:00011c61       ___stdio_common_vsprintf_s 00412c61 f   libucrt:output.obj
 0001:00011c85       _wcsncmp                   00412c85 f   libucrt:wcsncmp.obj
 0001:00011cc0       _strcspn                   00412cc0 f   libucrt:strcspn.obj
 0001:00011d06       _localeconv                00412d06 f   libucrt:localeconv.obj
 0001:00011d30       ___acrt_errno_from_os_error 00412d30 f   libucrt:errno.obj
 0001:00011d73       ___acrt_errno_map_os_error 00412d73 f   libucrt:errno.obj
 0001:00011d96       ___doserrno                00412d96 f   libucrt:errno.obj
 0001:00011da9       __errno                    00412da9 f   libucrt:errno.obj
 0001:00011dbc       _rand                      00412dbc f   libucrt:rand.obj
 0001:00011ddd       _srand                     00412ddd f   libucrt:rand.obj
 0001:00011def       ___acrt_initialize_stdio   00412def f   libucrt:_file.obj
 0001:00011eb7       ___acrt_iob_func           00412eb7 f   libucrt:_file.obj
 0001:00011ec7       ___acrt_uninitialize_stdio 00412ec7 f   libucrt:_file.obj
 0001:00011f13       __get_stream_buffer_pointers 00412f13 f   libucrt:_file.obj
 0001:00011f59       __lock_file                00412f59 f   libucrt:_file.obj
 0001:00011f6d       __unlock_file              00412f6d f   libucrt:_file.obj
 0001:00011f81       __fclose_nolock            00412f81 f   libucrt:fclose.obj
 0001:00011ff7       _fclose                    00412ff7 f   libucrt:fclose.obj
 0001:00012077       ??$?RV<lambda_2866be3712abc81a800a822484c830d8>@@AAV<lambda_39ca0ed439415581b5b15c265174cece>@@V<lambda_2b24c74d71094a6cd0cb82e44167d71b>@@@?$__crt_seh_guarded_call@X@@QAEX$$QAV<lambda_2866be3712abc81a800a822484c830d8>@@AAV<lambda_39ca0ed439415581b5b15c265174cece>@@$$QAV<lambda_2b24c74d71094a6cd0cb82e44167d71b>@@@Z 00413077 f i libucrt:fflush.obj
 0001:000120f8       ??$?RV<lambda_2cc53f568c5a2bb6f192f930a45d44ea>@@AAV<lambda_ab61a845afdef5b7c387490eaf3616ee>@@V<lambda_c2ffc0b7726aa6be21d5f0026187e748>@@@?$__crt_seh_guarded_call@X@@QAEX$$QAV<lambda_2cc53f568c5a2bb6f192f930a45d44ea>@@AAV<lambda_ab61a845afdef5b7c387490eaf3616ee>@@$$QAV<lambda_c2ffc0b7726aa6be21d5f0026187e748>@@@Z 004130f8 f i libucrt:fflush.obj
 0001:0001218b       ??$?RV<lambda_6d20deecaf4856105ebacbad442d1079>@@AAV<lambda_9a32fed5bf61b6b509b2d3f6003082a1>@@V<lambda_63ea2239ed67c638ddbae41947fdf875>@@@?$__crt_seh_guarded_call@H@@QAEH$$QAV<lambda_6d20deecaf4856105ebacbad442d1079>@@AAV<lambda_9a32fed5bf61b6b509b2d3f6003082a1>@@$$QAV<lambda_63ea2239ed67c638ddbae41947fdf875>@@@Z 0041318b f i libucrt:fflush.obj
 0001:000121e1       ??$__acrt_lock_and_call@V<lambda_ab61a845afdef5b7c387490eaf3616ee>@@@@YAXW4__acrt_lock_id@@$$QAV<lambda_ab61a845afdef5b7c387490eaf3616ee>@@@Z 004131e1 f i libucrt:fflush.obj
 0001:00012209       ??$__acrt_lock_stream_and_call@V<lambda_39ca0ed439415581b5b15c265174cece>@@@@YAXQAU_iobuf@@$$QAV<lambda_39ca0ed439415581b5b15c265174cece>@@@Z 00413209 f i libucrt:fflush.obj
 0001:00012231       ??$__acrt_lock_stream_and_call@V<lambda_9a32fed5bf61b6b509b2d3f6003082a1>@@@@YAHQAU_iobuf@@$$QAV<lambda_9a32fed5bf61b6b509b2d3f6003082a1>@@@Z 00413231 f i libucrt:fflush.obj
 0001:000122ed       ___acrt_stdio_flush_nolock 004132ed f   libucrt:fflush.obj
 0001:00012350       __fflush_nolock            00413350 f   libucrt:fflush.obj
 0001:00012397       __flushall                 00413397 f   libucrt:fflush.obj
 0001:000123a0       _fflush                    004133a0 f   libucrt:fflush.obj
 0001:000123e3       __fgetc_nolock             004133e3 f   libucrt:fgetc.obj
 0001:0001241f       __getc_nolock              0041341f f   libucrt:fgetc.obj
 0001:0001242a       _fgetc                     0041342a f   libucrt:fgetc.obj
 0001:0001252c       _fgetpos                   0041352c f   libucrt:fgetpos.obj
 0001:00012587       __fputc_nolock             00413587 f   libucrt:fputc.obj
 0001:000125b0       _fputc                     004135b0 f   libucrt:fputc.obj
 0001:000126b4       _fsetpos                   004136b4 f   libucrt:fsetpos.obj
 0001:000126ef       ?LongLongSub@@YAJ_J0PA_J@Z 004136ef f i libucrt:fseek.obj
 0001:000129a9       __fseeki64                 004139a9 f   libucrt:fseek.obj
 0001:000129c4       _fseek                     004139c4 f   libucrt:fseek.obj
 0001:000129df       ??$?RV<lambda_cd3bfd923e8d1349099e544c97b1bd8e>@@AAV<lambda_54dcfcba6f8e0c549fa430f4d53fb7dd>@@V<lambda_5e1d0fa2aa2b73b187bf8b7e1d30c7f8>@@@?$__crt_seh_guarded_call@I@@QAEI$$QAV<lambda_cd3bfd923e8d1349099e544c97b1bd8e>@@AAV<lambda_54dcfcba6f8e0c549fa430f4d53fb7dd>@@$$QAV<lambda_5e1d0fa2aa2b73b187bf8b7e1d30c7f8>@@@Z 004139df f i libucrt:fwrite.obj
 0001:00012a30       ??$__acrt_lock_stream_and_call@V<lambda_54dcfcba6f8e0c549fa430f4d53fb7dd>@@@@YAIQAU_iobuf@@$$QAV<lambda_54dcfcba6f8e0c549fa430f4d53fb7dd>@@@Z 00413a30 f i libucrt:fwrite.obj
 0001:00012a9e       __fwrite_nolock            00413a9e f   libucrt:fwrite.obj
 0001:00012c17       _fwrite                    00413c17 f   libucrt:fwrite.obj
 0001:00012c6f       ??$?RV<lambda_70c0770dcc4f6ec6272bb01dc82d3c91>@@AAV<lambda_ca71763b3c0644891230e4f79ea54fa6>@@V<lambda_ca266f0f09348b8765c113e3a39a2bc1>@@@?$__crt_seh_guarded_call@H@@QAEH$$QAV<lambda_70c0770dcc4f6ec6272bb01dc82d3c91>@@AAV<lambda_ca71763b3c0644891230e4f79ea54fa6>@@$$QAV<lambda_ca266f0f09348b8765c113e3a39a2bc1>@@@Z 00413c6f f i libucrt:setvbuf.obj
 0001:00012cc0       ??$__acrt_lock_stream_and_call@V<lambda_ca71763b3c0644891230e4f79ea54fa6>@@@@YAHQAU_iobuf@@$$QAV<lambda_ca71763b3c0644891230e4f79ea54fa6>@@@Z 00413cc0 f i libucrt:setvbuf.obj
 0001:00012db5       _setvbuf                   00413db5 f   libucrt:setvbuf.obj
 0001:00012e2b       __ungetc_nolock            00413e2b f   libucrt:ungetc.obj
 0001:00012f1a       _ungetc                    00413f1a f   libucrt:ungetc.obj
 0001:00012ff2       ___acrt_initialize_clock   00413ff2 f   libucrt:clock.obj
 0001:00013058       _clock                     00414058 f   libucrt:clock.obj
 0001:000130ba       ___acrt_initialize_locks   004140ba f   libucrt:locks.obj
 0001:000130fb       ___acrt_lock               004140fb f   libucrt:locks.obj
 0001:00013112       ___acrt_uninitialize_locks 00414112 f   libucrt:locks.obj
 0001:00013143       ___acrt_unlock             00414143 f   libucrt:locks.obj
 0001:0001315a       __lock_locales             0041415a f   libucrt:locks.obj
 0001:00013163       __unlock_locales           00414163 f   libucrt:locks.obj
 0001:0001316c       __calloc_base              0041416c f   libucrt:calloc_base.obj
 0001:000131c9       ___pctype_func             004141c9 f   libucrt:ctype.obj
 0001:000131ef       __chvalidchk_l             004141ef f i libucrt:_ctype.obj
 0001:00013219       __ischartype_l             00414219 f i libucrt:_ctype.obj
 0001:0001324c       __isdigit_l                0041424c f i libucrt:_ctype.obj
 0001:00013284       __islower_l                00414284 f i libucrt:_ctype.obj
 0001:000132bc       __isupper_l                004142bc f i libucrt:_ctype.obj
 0001:000132f4       _isdigit                   004142f4 f i libucrt:_ctype.obj
 0001:00013321       _islower                   00414321 f i libucrt:_ctype.obj
 0001:0001334e       _isupper                   0041434e f i libucrt:_ctype.obj
 0001:0001337b       __wcsdup                   0041437b f   libucrt:wcsdup.obj
 0001:000133dc       ____lc_codepage_func       004143dc f   libucrt:initctype.obj
 0001:00013403       ____lc_locale_name_func    00414403 f   libucrt:initctype.obj
 0001:0001342c       ____mb_cur_max_func        0041442c f   libucrt:initctype.obj
 0001:00013453       ___acrt_locale_initialize_ctype 00414453 f   libucrt:initctype.obj
 0001:0001384a       __ismbblead                0041484a f   libucrt:ismbbyte.obj
 0001:00013862       _malloc                    00414862 f   libucrt:malloc.obj
 0001:0001386d       ??$?RV<lambda_0fef6fff2b5e6b53303c9058db11ae1f>@@AAV<lambda_082c17da81b0962e08c0587ee0fac50c>@@V<lambda_fa6e051aed0a38726081083cc7c328e9>@@@?$__crt_seh_guarded_call@PAD@@QAEPAD$$QAV<lambda_0fef6fff2b5e6b53303c9058db11ae1f>@@AAV<lambda_082c17da81b0962e08c0587ee0fac50c>@@$$QAV<lambda_fa6e051aed0a38726081083cc7c328e9>@@@Z 0041486d f i libucrt:setlocale.obj
 0001:000138be       ??$__acrt_lock_and_call@V<lambda_082c17da81b0962e08c0587ee0fac50c>@@@@YAPADW4__acrt_lock_id@@$$QAV<lambda_082c17da81b0962e08c0587ee0fac50c>@@@Z 004148be f i libucrt:setlocale.obj
 0001:00013aed       _setlocale                 00414aed f   libucrt:setlocale.obj
 0001:00013b16       __fgetwc_nolock            00414b16 f   libucrt:fgetwc.obj
 0001:00013c8c       _fgetwc                    00414c8c f   libucrt:fgetwc.obj
 0001:00013d32       __fputwc_nolock            00414d32 f   libucrt:fputwc.obj
 0001:00013e5c       _fputwc                    00414e5c f   libucrt:fputwc.obj
 0001:00014052       __ungetwc_nolock           00415052 f   libucrt:ungetwc.obj
 0001:00014108       _ungetwc                   00415108 f   libucrt:ungetwc.obj
 0001:00014244       __wfsopen                  00415244 f   libucrt:fopen.obj
 0001:0001424f       ___strncnt                 0041524f f   libucrt:strncnt.obj
 0001:0001426b       __free_base                0041526b f   libucrt:free_base.obj
 0001:000142a5       __malloc_base              004152a5 f   libucrt:malloc_base.obj
 0001:000142f3       _strnlen                   004152f3 f   libucrt:strnlen.obj
 0001:0001441a       _wcsnlen                   0041541a f   libucrt:strnlen.obj
 0001:000145d1       _abort                     004155d1 f   libucrt:abort.obj
 0001:00014614       __realloc_base             00415614 f   libucrt:realloc_base.obj
 0001:00014680       ?divide@__crt_strtox@@YA_KAAUbig_integer@1@ABU21@@Z 00415680 f i libucrt:strtod.obj
 0001:00014b2e       ?unget@?$c_string_character_source@D@__crt_strtox@@QAEXD@Z 00415b2e f i libucrt:strtod.obj
 0001:00014b56       ?unget@?$c_string_character_source@_W@__crt_strtox@@QAEX_W@Z 00415b56 f i libucrt:strtod.obj
 0001:00014b82       ?validate@?$c_string_character_source@D@__crt_strtox@@QBE_NXZ 00415b82 f i libucrt:strtod.obj
 0001:00014b82       ?validate@?$c_string_character_source@_W@__crt_strtox@@QBE_NXZ 00415b82 f i libucrt:strtod.obj
 0001:00014b82       ?validate@?$string_output_adapter@D@__crt_stdio_output@@QBE_NXZ 00415b82 f i libucrt:output.obj
 0001:00014ba0       _pow                       00415ba0 f   libucrt:pow.obj
 0001:00014be0       __CIpow                    00415be0 f   libucrt:pow.obj
 0001:00014c1b       __CIpow_default            00415c1b f   libucrt:pow.obj
 0001:00014c34       __pow_default              00415c34     libucrt:pow.obj
 0001:00014e29       _wcscpy_s                  00415e29 f   libucrt:wcscpy_s.obj
 0001:00014ff4       __tolower_l                00415ff4 f   libucrt:tolower_toupper.obj
 0001:0001500e       _tolower                   0041600e f   libucrt:tolower_toupper.obj
 0001:0001503e       ___acrt_initialize_new_handler 0041603e f   libucrt:new_handler.obj
 0001:00015052       __callnewh                 00416052 f   libucrt:new_handler.obj
 0001:00015096       __query_new_handler        00416096 f   libucrt:new_handler.obj
 0001:000150e8       __seh_filter_exe           004160e8 f   libucrt:exception_filter.obj
 0001:0001525b       ??$?RV<lambda_03b1d95aef87969028cfba75ccab2455>@@AAV<lambda_6e4b09c48022b2350581041d5f6b0c4c>@@V<lambda_22bdf7517842c4b3e53723af5aa32b9e>@@@?$__crt_seh_guarded_call@X@@QAEX$$QAV<lambda_03b1d95aef87969028cfba75ccab2455>@@AAV<lambda_6e4b09c48022b2350581041d5f6b0c4c>@@$$QAV<lambda_22bdf7517842c4b3e53723af5aa32b9e>@@@Z 0041625b f i libucrt:exit.obj
 0001:0001529e       ??$__acrt_lock_and_call@V<lambda_6e4b09c48022b2350581041d5f6b0c4c>@@@@YAXW4__acrt_lock_id@@$$QAV<lambda_6e4b09c48022b2350581041d5f6b0c4c>@@@Z 0041629e f i libucrt:exit.obj
 0001:0001544d       ___scrt_is_managed_app     0041644d f   LIBCMT:utility_desktop.obj
 0001:000154fb       ___acrt_initialize_thread_local_exit_callback 004164fb f   libucrt:exit.obj
 0001:0001550a       __c_exit                   0041650a f   libucrt:exit.obj
 0001:00015519       __cexit                    00416519 f   libucrt:exit.obj
 0001:00015528       __exit                     00416528 f   libucrt:exit.obj
 0001:0001553e       __register_thread_local_exe_atexit_callback 0041653e f   libucrt:exit.obj
 0001:00015576       _exit                      00416576 f   libucrt:exit.obj
 0001:00015837       ___acrt_allocate_buffer_for_argv 00416837 f   libucrt:argv_parsing.obj
 0001:0001588c       __configure_narrow_argv    0041688c f   libucrt:argv_parsing.obj
 0001:00015a9b       ??$uninitialize@A6AXAAPAPA_W@Z@?$dual_state_global@PAPA_W@__crt_state_management@@QAEXA6AXAAPAPA_W@Z@Z 00416a9b f i libucrt:environment_initialization.obj
 0001:00015a9b       ??$uninitialize@A6AXAAPAPAD@Z@?$dual_state_global@PAPAD@__crt_state_management@@QAEXA6AXAAPAPAD@Z@Z 00416a9b f i libucrt:environment_initialization.obj
 0001:00015b11       ___dcrt_get_or_create_narrow_environment_nolock 00416b11 f   libucrt:environment_initialization.obj
 0001:00015b16       ___dcrt_uninitialize_environments_nolock 00416b16 f   libucrt:environment_initialization.obj
 0001:00015b4d       __get_initial_narrow_environment 00416b4d f   libucrt:environment_initialization.obj
 0001:00015b61       __initialize_narrow_environment 00416b61 f   libucrt:environment_initialization.obj
 0001:00015b66       ??$?RV<lambda_69a2805e680e0e292e8ba93315fe43a8>@@AAV<lambda_f03950bc5685219e0bcd2087efbe011e>@@V<lambda_03fcd07e894ec930e3f35da366ca99d6>@@@?$__crt_seh_guarded_call@H@@QAEH$$QAV<lambda_69a2805e680e0e292e8ba93315fe43a8>@@AAV<lambda_f03950bc5685219e0bcd2087efbe011e>@@$$QAV<lambda_03fcd07e894ec930e3f35da366ca99d6>@@@Z 00416b66 f i libucrt:onexit.obj
 0001:00015bb7       ??$?RV<lambda_8e746cf0007f6ed984d6f78af1fec997>@@AAV<lambda_22ebabd17bc4fa466a2aca6d8deb888d>@@V<lambda_18ed0c0b38a6dc0daf1e7ac6d6adf05e>@@@?$__crt_seh_guarded_call@H@@QAEH$$QAV<lambda_8e746cf0007f6ed984d6f78af1fec997>@@AAV<lambda_22ebabd17bc4fa466a2aca6d8deb888d>@@$$QAV<lambda_18ed0c0b38a6dc0daf1e7ac6d6adf05e>@@@Z 00416bb7 f i libucrt:onexit.obj
 0001:00015c08       ??$__acrt_lock_and_call@V<lambda_22ebabd17bc4fa466a2aca6d8deb888d>@@@@YAHW4__acrt_lock_id@@$$QAV<lambda_22ebabd17bc4fa466a2aca6d8deb888d>@@@Z 00416c08 f i libucrt:onexit.obj
 0001:00015c30       ??$__acrt_lock_and_call@V<lambda_f03950bc5685219e0bcd2087efbe011e>@@@@YAHW4__acrt_lock_id@@$$QAV<lambda_f03950bc5685219e0bcd2087efbe011e>@@@Z 00416c30 f i libucrt:onexit.obj
 0001:00015eb7       __crt_atexit               00416eb7 f   libucrt:onexit.obj
 0001:00015ecd       __execute_onexit_table     00416ecd f   libucrt:onexit.obj
 0001:00015eea       __initialize_onexit_table  00416eea f   libucrt:onexit.obj
 0001:00015f27       __register_onexit_function 00416f27 f   libucrt:onexit.obj
 0001:00016030       __should_initialize_environment 00417030 f   LIBCMT:env_mode.obj
 0001:00016030       ?do_always_noconv@?$codecvt@DDU_Mbstatet@@@std@@MBE_NXZ 00417030 f   StringScanner.cpp.obj
 0001:00016030       ___acrt_uninitialize_command_line 00417030 f   libucrt:argv_data.obj
 0001:00016061       ___acrt_initialize         00417061 f   libucrt:initialization.obj
 0001:00016073       ___acrt_uninitialize       00417073 f   libucrt:initialization.obj
 0001:00016085       __query_app_type           00417085 f   libucrt:report_runtime_error.obj
 0001:0001608b       __set_app_type             0041708b f   libucrt:report_runtime_error.obj
 0001:0001609a       ??$__crt_fast_encode_pointer@P6AHPAU_exception@@@Z@@YAP6AHPAU_exception@@@ZQ6AH0@Z@Z 0041709a f i libucrt:matherr.obj
 0001:0001609a       ??$__crt_fast_encode_pointer@P6AHXZ@@YAP6AHXZQ6AHXZ@Z 0041709a f i libucrt:onexit.obj
 0001:0001609a       ??$__crt_fast_encode_pointer@P6GHPA_WKJ@Z@@YAP6GHPA_WKJ@ZQ6GH0KJ@Z@Z 0041709a f i libucrt:winapi_thunks.obj
 0001:0001609a       ??$__crt_fast_encode_pointer@P6GXPAXK0@Z@@YAP6GXPAXK0@ZQ6GX0K0@Z@Z 0041709a f i libucrt:exit.obj
 0001:000160b9       ___acrt_has_user_matherr   004170b9 f   libucrt:matherr.obj
 0001:000160d2       ___acrt_initialize_user_matherr 004170d2 f   libucrt:matherr.obj
 0001:000160e6       ___acrt_invoke_user_matherr 004170e6 f   libucrt:matherr.obj
 0001:0001612f       ___setusermatherr          0041712f f   libucrt:matherr.obj
 0001:00016144       __initterm                 00417144 f   libucrt:initterm.obj
 0001:000161a0       __initterm_e               004171a0 f   libucrt:initterm.obj
 0001:000161e5       __get_fmode                004171e5 f   libucrt:setmode.obj
 0001:00016211       __set_fmode                00417211 f   libucrt:setmode.obj
 0001:0001624e       __setmode_nolock           0041724e f   libucrt:setmode.obj
 0001:0001631f       ___acrt_initialize_command_line 0041731f f   libucrt:argv_data.obj
 0001:00016338       ___p___argc                00417338 f   libucrt:argv_data.obj
 0001:0001633e       ___p___argv                0041733e f   libucrt:argv_data.obj
 0001:00016344       ??$?RV<lambda_303d0ad9bde654cb3f803a73716ce7a4>@@AAV<lambda_92fe181106aff629c9a2e25713a64969>@@V<lambda_184325e10b6cff6f771390cbceab281b>@@@?$__crt_seh_guarded_call@X@@QAEX$$QAV<lambda_303d0ad9bde654cb3f803a73716ce7a4>@@AAV<lambda_92fe181106aff629c9a2e25713a64969>@@$$QAV<lambda_184325e10b6cff6f771390cbceab281b>@@@Z 00417344 f i libucrt:wsetlocale.obj
 0001:00016387       ??$?RV<lambda_38c1253c7a74f5d2d430989951395d98>@@AAV<lambda_b163b37eafe0a13f2c371fafeb0365c9>@@AAV<lambda_8dff2cf36a5417162780cd64fa2883ef>@@@?$__crt_seh_guarded_call@X@@QAEX$$QAV<lambda_38c1253c7a74f5d2d430989951395d98>@@AAV<lambda_b163b37eafe0a13f2c371fafeb0365c9>@@AAV<lambda_8dff2cf36a5417162780cd64fa2883ef>@@@Z 00417387 f i libucrt:wsetlocale.obj
 0001:000163c2       ??$?RV<lambda_e5124f882df8998aaf41531e079ba474>@@AAV<lambda_3e16ef9562a7dcce91392c22ab16ea36>@@V<lambda_e25ca0880e6ef98be67edffd8c599615>@@@?$__crt_seh_guarded_call@X@@QAEX$$QAV<lambda_e5124f882df8998aaf41531e079ba474>@@AAV<lambda_3e16ef9562a7dcce91392c22ab16ea36>@@$$QAV<lambda_e25ca0880e6ef98be67edffd8c599615>@@@Z 004173c2 f i libucrt:wsetlocale.obj
 0001:0001640b       ??$__acrt_lock_and_call@V<lambda_3e16ef9562a7dcce91392c22ab16ea36>@@@@YAXW4__acrt_lock_id@@$$QAV<lambda_3e16ef9562a7dcce91392c22ab16ea36>@@@Z 0041740b f i libucrt:wsetlocale.obj
 0001:00016433       ??$__acrt_lock_and_call@V<lambda_92fe181106aff629c9a2e25713a64969>@@@@YAXW4__acrt_lock_id@@$$QAV<lambda_92fe181106aff629c9a2e25713a64969>@@@Z 00417433 f i libucrt:wsetlocale.obj
 0001:0001645b       ??$uninitialize@V<lambda_88ce03f932007f29bf8b8056cbaba4f3>@@@?$dual_state_global@PAU__crt_locale_data@@@__crt_state_management@@QAEX$$QAV<lambda_88ce03f932007f29bf8b8056cbaba4f3>@@@Z 0041745b f i libucrt:wsetlocale.obj
 0001:000165e4       ___acrt_copy_locale_name   004175e4 f   libucrt:wsetlocale.obj
 0001:0001664a       ___acrt_set_locale_changed 0041764a f   libucrt:wsetlocale.obj
 0001:00016655       ___acrt_uninitialize_locale 00417655 f   libucrt:wsetlocale.obj
 0001:0001666c       ___lc_lctowcs              0041766c f   libucrt:wsetlocale.obj
 0001:000166dc       ___lc_wcstolc              004176dc f   libucrt:wsetlocale.obj
 0001:0001680b       __configthreadlocale       0041780b f   libucrt:wsetlocale.obj
 0001:0001689c       __expandlocale             0041789c f   libucrt:wsetlocale.obj
 0001:00016c13       __wcscats                  00417c13 f   libucrt:wsetlocale.obj
 0001:00016c54       __wsetlocale               00417c54 f   libucrt:wsetlocale.obj
 0001:00017523       __query_new_mode           00418523 f   libucrt:new_mode.obj
 0001:00017529       __set_new_mode             00418529 f   libucrt:new_mode.obj
 0001:00017558       ___p__commode              00418558 f   libucrt:ncommode.obj
 0001:0001755e       _terminate                 0041855e f   libucrt:terminate.obj
 0001:0001759a       __controlfp_s              0041859a f   libucrt:contrlfp.obj
 0001:000175f9       _strcpy_s                  004185f9 f   libucrt:strcpy_s.obj
 0001:00017653       ??$is_overflow_condition@K@__crt_strtox@@YA_NIK@Z 00418653 f i libucrt:atox.obj
 0001:00017686       ??$make_c_string_character_source@_W$$T@__crt_strtox@@YA?AV?$c_string_character_source@_W@0@QB_W$$T@Z 00418686 f i libucrt:atox.obj
 0001:00017686       ??$make_c_string_character_source@DPAPAD@__crt_strtox@@YA?AV?$c_string_character_source@D@0@QBDQAPAD@Z 00418686 f i libucrt:strtod.obj
 0001:000176a1       ??$parse_integer@KV?$c_string_character_source@D@__crt_strtox@@@__crt_strtox@@YAKQAU__crt_locale_pointers@@V?$c_string_character_source@D@0@H_N@Z 004186a1 f i libucrt:atox.obj
 0001:000178c9       ??$parse_integer@KV?$c_string_character_source@_W@__crt_strtox@@@__crt_strtox@@YAKQAU__crt_locale_pointers@@V?$c_string_character_source@_W@0@H_N@Z 004188c9 f i libucrt:atox.obj
 0001:00017fae       __wtol                     00418fae f   libucrt:atox.obj
 0001:00017fd8       ??$?RV<lambda_15ade71b0218206bbe3333a0c9b79046>@@AAV<lambda_da44e0f8b0f19ba52fefafb335991732>@@V<lambda_207f2d024fc103971653565357d6cd41>@@@?$__crt_seh_guarded_call@X@@QAEX$$QAV<lambda_15ade71b0218206bbe3333a0c9b79046>@@AAV<lambda_da44e0f8b0f19ba52fefafb335991732>@@$$QAV<lambda_207f2d024fc103971653565357d6cd41>@@@Z 00418fd8 f i libucrt:per_thread_data.obj
 0001:00018020       ??$?RV<lambda_38edbb1296d33220d7e4dd0ed76b244a>@@AAV<lambda_5ce1d447e08cb34b2473517608e21441>@@V<lambda_fb385d3da700c9147fc39e65dd577a8c>@@@?$__crt_seh_guarded_call@X@@QAEX$$QAV<lambda_38edbb1296d33220d7e4dd0ed76b244a>@@AAV<lambda_5ce1d447e08cb34b2473517608e21441>@@$$QAV<lambda_fb385d3da700c9147fc39e65dd577a8c>@@@Z 00419020 f i libucrt:per_thread_data.obj
 0001:00018081       ??$?RV<lambda_6affb1475c98b40b75cdec977db92e3c>@@AAV<lambda_b8d4b9c228a6ecc3f80208dbb4b4a104>@@V<lambda_608742c3c92a14382c1684fc64f96c88>@@@?$__crt_seh_guarded_call@X@@QAEX$$QAV<lambda_6affb1475c98b40b75cdec977db92e3c>@@AAV<lambda_b8d4b9c228a6ecc3f80208dbb4b4a104>@@$$QAV<lambda_608742c3c92a14382c1684fc64f96c88>@@@Z 00419081 f i libucrt:per_thread_data.obj
 0001:000180cc       ??$?RV<lambda_a7e850c220f1c8d1e6efeecdedd162c6>@@AAV<lambda_46720907175c18b6c9d2717bc0d2d362>@@V<lambda_9048902d66e8d99359bc9897bbb930a8>@@@?$__crt_seh_guarded_call@X@@QAEX$$QAV<lambda_a7e850c220f1c8d1e6efeecdedd162c6>@@AAV<lambda_46720907175c18b6c9d2717bc0d2d362>@@$$QAV<lambda_9048902d66e8d99359bc9897bbb930a8>@@@Z 004190cc f i libucrt:per_thread_data.obj
 0001:0001811c       ??$__acrt_lock_and_call@V<lambda_46720907175c18b6c9d2717bc0d2d362>@@@@YAXW4__acrt_lock_id@@$$QAV<lambda_46720907175c18b6c9d2717bc0d2d362>@@@Z 0041911c f i libucrt:per_thread_data.obj
 0001:00018144       ??$__acrt_lock_and_call@V<lambda_5ce1d447e08cb34b2473517608e21441>@@@@YAXW4__acrt_lock_id@@$$QAV<lambda_5ce1d447e08cb34b2473517608e21441>@@@Z 00419144 f i libucrt:per_thread_data.obj
 0001:0001816c       ??$__acrt_lock_and_call@V<lambda_b8d4b9c228a6ecc3f80208dbb4b4a104>@@@@YAXW4__acrt_lock_id@@$$QAV<lambda_b8d4b9c228a6ecc3f80208dbb4b4a104>@@@Z 0041916c f i libucrt:per_thread_data.obj
 0001:00018194       ??$__acrt_lock_and_call@V<lambda_da44e0f8b0f19ba52fefafb335991732>@@@@YAXW4__acrt_lock_id@@$$QAV<lambda_da44e0f8b0f19ba52fefafb335991732>@@@Z 00419194 f i libucrt:per_thread_data.obj
 0001:0001834a       ___acrt_getptd             0041934a f   libucrt:per_thread_data.obj
 0001:000183fe       ___acrt_getptd_head        004193fe f   libucrt:per_thread_data.obj
 0001:00018498       ___acrt_getptd_noexit      00419498 f   libucrt:per_thread_data.obj
 0001:0001854b       ___acrt_initialize_ptd     0041954b f   libucrt:per_thread_data.obj
 0001:00018577       ___acrt_uninitialize_ptd   00419577 f   libucrt:per_thread_data.obj
 0001:00018591       __dsign                    00419591 f   libucrt:nan.obj
 0001:000185a1       __errcode                  004195a1 f   libucrt:fpexcept.obj
 0001:000185d5       __except1                  004195d5 f   libucrt:fpexcept.obj
 0001:000186a3       __handle_exc               004196a3 f   libucrt:fpexcept.obj
 0001:00018883       __raise_exc                00419883 f   libucrt:fpexcept.obj
 0001:000188a6       __raise_exc_ex             004198a6 f   libucrt:fpexcept.obj
 0001:00018b97       __set_errno_from_matherr   00419b97 f   libucrt:fpexcept.obj
 0001:00018bc6       __umatherr                 00419bc6 f   libucrt:fpexcept.obj
 0001:00018c68       __decomp                   00419c68 f   libucrt:util.obj
 0001:00018d3c       __set_exp                  00419d3c f   libucrt:util.obj
 0001:00018d6b       __sptype                   00419d6b f   libucrt:util.obj
 0001:00018dc9       ___set_fpsr_sse2           00419dc9 f   libucrt:fpctrl.obj
 0001:00018e3f       __clrfp                    00419e3f f   libucrt:fpctrl.obj
 0001:00018e52       __ctrlfp                   00419e52 f   libucrt:fpctrl.obj
 0001:00018e7e       __set_statfp               00419e7e f   libucrt:fpctrl.obj
 0001:00018ed9       __statfp                   00419ed9 f   libucrt:fpctrl.obj
 0001:00018eeb       _strtol                    00419eeb f   libucrt:strtox.obj
 0001:00018f17       __mbtowc_l                 00419f17 f   libucrt:mbtowc.obj
 0001:00019011       _mbtowc                    0041a011 f   libucrt:mbtowc.obj
 0001:0001902b       __wctomb_s_l               0041a02b f   libucrt:wctomb.obj
 0001:0001914c       _wctomb_s                  0041a14c f   libucrt:wctomb.obj
 0001:00019169       ___acrt_update_locale_info 0041a169 f   libucrt:locale_update.obj
 0001:00019196       ___acrt_update_multibyte_info 0041a196 f   libucrt:locale_update.obj
 0001:000191c3       ?__acrt_fp_classify@@YA?AW4__acrt_fp_class@@ABN@Z 0041a1c3 f i libucrt:cvt.obj
 0001:0001922b       ?__acrt_fp_is_negative@@YA_NABN@Z 0041a22b f i libucrt:cvt.obj
 0001:00019a9b       ___acrt_fp_format          0041aa9b f   libucrt:cvt.obj
 0001:00019be5       __fileno                   0041abe5 f   libucrt:fileno.obj
 0001:00019c0b       __get_printf_count_output  0041ac0b f   libucrt:printf_count_output.obj
 0001:00019c20       ___acrt_stdio_begin_temporary_buffering_nolock 0041ac20 f   libucrt:_sftbuf.obj
 0001:00019cd5       ___acrt_stdio_end_temporary_buffering_nolock 0041acd5 f   libucrt:_sftbuf.obj
 0001:00019e78       ___acrt_initialize_lowio   0041ae78 f   libucrt:ioinit.obj
 0001:00019ece       ___acrt_uninitialize_lowio 0041aece f   libucrt:ioinit.obj
 0001:00019f07       ??$?RV<lambda_93797fb4802c957ba6a7f08e1250235b>@@AAV<lambda_1f3ce6bd48e0aa2e72a71c02eee379d3>@@V<lambda_56cae30c9364c9b6c15aeaac05d0418e>@@@?$__crt_seh_guarded_call@H@@QAEH$$QAV<lambda_93797fb4802c957ba6a7f08e1250235b>@@AAV<lambda_1f3ce6bd48e0aa2e72a71c02eee379d3>@@$$QAV<lambda_56cae30c9364c9b6c15aeaac05d0418e>@@@Z 0041af07 f i libucrt:winapi_thunks.obj
 0001:00019f8b       ??$__acrt_lock_and_call@V<lambda_1f3ce6bd48e0aa2e72a71c02eee379d3>@@@@YAHW4__acrt_lock_id@@$$QAV<lambda_1f3ce6bd48e0aa2e72a71c02eee379d3>@@@Z 0041af8b f i libucrt:winapi_thunks.obj
 0001:0001a262       ___acrt_AppPolicyGetProcessTerminationMethodInternal@4 0041b262 f   libucrt:winapi_thunks.obj
 0001:0001a2b9       ___acrt_CompareStringEx@36 0041b2b9 f   libucrt:winapi_thunks.obj
 0001:0001a32d       ___acrt_EnumSystemLocalesEx@16 0041b32d f   libucrt:winapi_thunks.obj
 0001:0001a386       ___acrt_FlsAlloc@4         0041b386 f   libucrt:winapi_thunks.obj
 0001:0001a3dc       ___acrt_FlsFree@4          0041b3dc f   libucrt:winapi_thunks.obj
 0001:0001a432       ___acrt_FlsGetValue@4      0041b432 f   libucrt:winapi_thunks.obj
 0001:0001a488       ___acrt_FlsSetValue@8      0041b488 f   libucrt:winapi_thunks.obj
 0001:0001a4e1       ___acrt_GetLocaleInfoEx@16 0041b4e1 f   libucrt:winapi_thunks.obj
 0001:0001a537       ___acrt_GetUserDefaultLocaleName@8 0041b537 f   libucrt:winapi_thunks.obj
 0001:0001a58a       ___acrt_InitializeCriticalSectionEx@12 0041b58a f   libucrt:winapi_thunks.obj
 0001:0001a5ec       ___acrt_IsValidLocaleName@4 0041b5ec f   libucrt:winapi_thunks.obj
 0001:0001a63b       ___acrt_LCIDToLocaleName@16 0041b63b f   libucrt:winapi_thunks.obj
 0001:0001a691       ___acrt_LCMapStringEx@36   0041b691 f   libucrt:winapi_thunks.obj
 0001:0001a705       ___acrt_LocaleNameToLCID@8 0041b705 f   libucrt:winapi_thunks.obj
 0001:0001a74d       ___acrt_can_use_vista_locale_apis 0041b74d f   libucrt:winapi_thunks.obj
 0001:0001a759       ___acrt_eagerly_load_locale_apis 0041b759 f   libucrt:winapi_thunks.obj
 0001:0001a790       ___acrt_initialize_winapi_thunks 0041b790 f   libucrt:winapi_thunks.obj
 0001:0001a7b6       ___acrt_uninitialize_winapi_thunks 0041b7b6 f   libucrt:winapi_thunks.obj
 0001:0001a7ec       __fcloseall                0041b7ec f   libucrt:closeall.obj
 0001:0001a88c       ___acrt_stdio_free_buffer_nolock 0041b88c f   libucrt:_freebuf.obj
 0001:0001a8ca       ??$?RV<lambda_218ce3db14220d0be481dae8ef3383b6>@@AAV<lambda_628dfdc04ba53c8bfc02c9951375f3f5>@@V<lambda_57dc472bd5c9d5f3b2cbca59b8a843ae>@@@?$__crt_seh_guarded_call@H@@QAEH$$QAV<lambda_218ce3db14220d0be481dae8ef3383b6>@@AAV<lambda_628dfdc04ba53c8bfc02c9951375f3f5>@@$$QAV<lambda_57dc472bd5c9d5f3b2cbca59b8a843ae>@@@Z 0041b8ca f i libucrt:close.obj
 0001:0001a94c       ??$__acrt_lowio_lock_fh_and_call@V<lambda_628dfdc04ba53c8bfc02c9951375f3f5>@@@@YAHH$$QAV<lambda_628dfdc04ba53c8bfc02c9951375f3f5>@@@Z 0041b94c f i libucrt:close.obj
 0001:0001a974       __close                    0041b974 f   libucrt:close.obj
 0001:0001a9f3       __close_nolock             0041b9f3 f   libucrt:close.obj
 0001:0001aa8f       ?__acrt_stdio_allocate_stream@@YA?AV__crt_stdio_stream@@XZ 0041ba8f f   libucrt:stream.obj
 0001:0001aaee       ?__acrt_stdio_free_stream@@YAXV__crt_stdio_stream@@@Z 0041baee f   libucrt:stream.obj
 0001:0001abec       ??$?RV<lambda_9e9de3de5fa147e2223d7db92bc10aa6>@@AAV<lambda_38ce7e780aa69e748d6df282ebc68efe>@@V<lambda_8ca6da459f0f6780f1cff60fdc3d00e5>@@@?$__crt_seh_guarded_call@H@@QAEH$$QAV<lambda_9e9de3de5fa147e2223d7db92bc10aa6>@@AAV<lambda_38ce7e780aa69e748d6df282ebc68efe>@@$$QAV<lambda_8ca6da459f0f6780f1cff60fdc3d00e5>@@@Z 0041bbec f i libucrt:commit.obj
 0001:0001ac84       ??$__acrt_lowio_lock_fh_and_call@V<lambda_38ce7e780aa69e748d6df282ebc68efe>@@@@YAHH$$QAV<lambda_38ce7e780aa69e748d6df282ebc68efe>@@@Z 0041bc84 f i libucrt:commit.obj
 0001:0001acac       __commit                   0041bcac f   libucrt:commit.obj
 0001:0001b2bd       __write                    0041c2bd f   libucrt:write.obj
 0001:0001b3a8       __write_nolock             0041c3a8 f   libucrt:write.obj
 0001:0001b902       ___acrt_stdio_refill_and_read_narrow_nolock 0041c902 f   libucrt:_filbuf.obj
 0001:0001b90d       ___acrt_stdio_refill_and_read_wide_nolock 0041c90d f   libucrt:_filbuf.obj
 0001:0001bec6       __ftelli64                 0041cec6 f   libucrt:ftell.obj
 0001:0001bed1       __ftelli64_nolock          0041ced1 f   libucrt:ftell.obj
 0001:0001c2a2       ___acrt_stdio_flush_and_write_narrow_nolock 0041d2a2 f   libucrt:_flsbuf.obj
 0001:0001c2ad       ___acrt_stdio_flush_and_write_wide_nolock 0041d2ad f   libucrt:_flsbuf.obj
 0001:0001c43b       __lseeki64                 0041d43b f   libucrt:lseek.obj
 0001:0001c456       __lseeki64_nolock          0041d456 f   libucrt:lseek.obj
 0001:0001c471       ___acrt_stdio_allocate_buffer_nolock 0041d471 f   libucrt:_getbuf.obj
 0001:0001c4ce       ___acrt_initialize_heap    0041d4ce f   libucrt:heap_handle.obj
 0001:0001c4df       ___acrt_uninitialize_heap  0041d4df f   libucrt:heap_handle.obj
 0001:0001c4e9       __isctype_l                0041d4e9 f   libucrt:isctype.obj
 0001:0001c6b6       ___acrt_GetLocaleInfoA     0041d6b6 f   libucrt:getlocaleinfoa.obj
 0001:0001c868       ___acrt_GetStringTypeA     0041d868 f   libucrt:getstringtypea.obj
 0001:0001cba2       ___acrt_LCMapStringA       0041dba2 f   libucrt:lcmapstringa.obj
 0001:0001cd66       __mbstowcs_s_l             0041dd66 f   libucrt:mbstowcs.obj
 0001:0001ce49       _mbstowcs_s                0041de49 f   libucrt:mbstowcs.obj
 0001:0001d0ea       __wcstombs_s_l             0041e0ea f   libucrt:wcstombs.obj
 0001:0001d1b7       ??$__acrt_stdio_parse_mode@_W@@YA?AU__acrt_stdio_stream_mode@@QB_W@Z 0041e1b7 f i libucrt:openfile.obj
 0001:0001d480       ?__acrt_stdio_parse_mode_D@@YA_NAAU__acrt_stdio_stream_mode@@@Z 0041e480 f i libucrt:openfile.obj
 0001:0001d49b       ?__acrt_stdio_parse_mode_T@@YA_NAAU__acrt_stdio_stream_mode@@@Z 0041e49b f i libucrt:openfile.obj
 0001:0001d4ba       ?__acrt_stdio_parse_mode_b@@YA_NAAU__acrt_stdio_stream_mode@@@Z 0041e4ba f i libucrt:openfile.obj
 0001:0001d4da       ?__acrt_stdio_parse_mode_c@@YA_NAAU__acrt_stdio_stream_mode@@AA_N@Z 0041e4da f i libucrt:openfile.obj
 0001:0001d4fc       ?__acrt_stdio_parse_mode_n@@YA_NAAU__acrt_stdio_stream_mode@@AA_N@Z 0041e4fc f i libucrt:openfile.obj
 0001:0001d51e       ?__acrt_stdio_parse_mode_plus@@YA_NAAU__acrt_stdio_stream_mode@@AA_N@Z 0041e51e f i libucrt:openfile.obj
 0001:0001d553       ?__acrt_stdio_parse_mode_t@@YA_NAAU__acrt_stdio_stream_mode@@@Z 0041e553 f i libucrt:openfile.obj
 0001:0001d573       __wopenfile                0041e573 f   libucrt:openfile.obj
 0001:0001d57e       ??$?RV<lambda_cbab9ec6f41b0180b23cc171c22676b0>@@AAV<lambda_44731a7d0e6d81c3e6aa82d741081786>@@V<lambda_4b292cb8dd18144e164572427af410ab>@@@?$__crt_seh_guarded_call@P6AXH@Z@@QAEP6AXH@Z$$QAV<lambda_cbab9ec6f41b0180b23cc171c22676b0>@@AAV<lambda_44731a7d0e6d81c3e6aa82d741081786>@@$$QAV<lambda_4b292cb8dd18144e164572427af410ab>@@@Z 0041e57e f i libucrt:signal.obj
 0001:0001d5d8       ??$__acrt_lock_and_call@V<lambda_44731a7d0e6d81c3e6aa82d741081786>@@@@YAP6AXH@ZW4__acrt_lock_id@@$$QAV<lambda_44731a7d0e6d81c3e6aa82d741081786>@@@Z 0041e5d8 f i libucrt:signal.obj
 0001:0001d66a       ___acrt_get_sigabrt_handler 0041e66a f   libucrt:signal.obj
 0001:0001d681       ___acrt_initialize_signal_handlers 0041e681 f   libucrt:signal.obj
 0001:0001d6bc       ___fpecode                 0041e6bc f   libucrt:signal.obj
 0001:0001d6c5       _raise                     0041e6c5 f   libucrt:signal.obj
 0001:0001d8cd       _iswctype                  0041e8cd f   libucrt:iswctype.obj
 0001:0001d92c       __fpclass                  0041e92c f   libucrt:ieeemisc.obj
 0001:0001d9d0       ___acrt_initialize_sse2    0041e9d0 f   libucrt:mathfcns.obj
 0001:0001d9e0       __CIpow_pentium4           0041e9e0 f   libucrt:pow_pentium4.obj
 0001:0001d9f9       __pow_pentium4             0041e9f9     libucrt:pow_pentium4.obj
 0001:0001e511       __fFEXP                    0041f511     libucrt:87tran.obj
 0001:0001e568       __rtinfpopse               0041f568     libucrt:87tran.obj
 0001:0001e56a       __rtinfnpopse              0041f56a     libucrt:87tran.obj
 0001:0001e57a       __fFLN                     0041f57a     libucrt:87tran.obj
 0001:0001e62f       __rtinfpop                 0041f62f     libucrt:87tran.obj
 0001:0001e631       __rtinfnpop                0041f631     libucrt:87tran.obj
 0001:0001e64e       __ffexpm1                  0041f64e     libucrt:87tran.obj
 0001:0001e700       __trandisp1                0041f700 f   libucrt:87disp.obj
 0001:0001e767       __trandisp2                0041f767 f   libucrt:87disp.obj
 0001:0001e7f3       __rttospopde               0041f7f3     libucrt:87disp.obj
 0001:0001e7f8       __rttospop                 0041f7f8     libucrt:87disp.obj
 0001:0001e7fa       __rtnospop                 0041f7fa     libucrt:87disp.obj
 0001:0001e7fc       __rttosnpop                0041f7fc     libucrt:87disp.obj
 0001:0001e7fd       __rtnospopde               0041f7fd     libucrt:87disp.obj
 0001:0001e804       __rtzeropop                0041f804     libucrt:87disp.obj
 0001:0001e806       __rtzeronpop               0041f806     libucrt:87disp.obj
 0001:0001e80b       __rtzerospop               0041f80b     libucrt:87disp.obj
 0001:0001e818       __rtonepop                 0041f818     libucrt:87disp.obj
 0001:0001e81a       __rtonenpop                0041f81a     libucrt:87disp.obj
 0001:0001e81f       __tosnan1                  0041f81f     libucrt:87disp.obj
 0001:0001e84a       __nosnan2                  0041f84a     libucrt:87disp.obj
 0001:0001e84c       __tosnan2                  0041f84c     libucrt:87disp.obj
 0001:0001e874       __nan2                     0041f874     libucrt:87disp.obj
 0001:0001e8b3       __rtindfpop                0041f8b3     libucrt:87disp.obj
 0001:0001e8b5       __rtindfnpop               0041f8b5     libucrt:87disp.obj
 0001:0001e8c6       __rttosnpopde              0041f8c6     libucrt:87disp.obj
 0001:0001e8d0       __rtatan2inf               0041f8d0     libucrt:87disp.obj
 0001:0001e8ed       __rtchsifneg               0041f8ed     libucrt:87disp.obj
 0001:0001e900       __startTwoArgErrorHandling 0041f900 f   libucrt:genexcep.obj
 0001:0001e917       __startOneArgErrorHandling 0041f917 f   libucrt:genexcep.obj
 0001:0001e960       __twoToTOS                 0041f960 f   libucrt:common.obj
 0001:0001e975       __load_CW                  0041f975 f   libucrt:common.obj
 0001:0001e98c       __convertTOStoQNaN         0041f98c f   libucrt:common.obj
 0001:0001e9a5       __fload_withFB             0041f9a5 f   libucrt:common.obj
 0001:0001e9e8       __checkTOS_withFB          0041f9e8 f   libucrt:common.obj
 0001:0001e9fe       __fast_exit                0041f9fe f   libucrt:common.obj
 0001:0001ea0b       __math_exit                0041fa0b f   libucrt:common.obj
 0001:0001ea35       __check_overflow_exit      0041fa35 f   libucrt:common.obj
 0001:0001ea49       __check_range_exit         0041fa49 f   libucrt:common.obj
 0001:0001eaec       __d_inttype                0041faec f   libucrt:powhlp.obj
 0001:0001eb56       __powhlp                   0041fb56 f   libucrt:powhlp.obj
 0001:0001ec81       __wcsicmp                  0041fc81 f   libucrt:wcsicmp.obj
 0001:0001ed16       __wcsicmp_l                0041fd16 f   libucrt:wcsicmp.obj
 0001:0001edf6       ?initialize@?$dual_state_global@P6AHPAU_exception@@@Z@__crt_state_management@@QAEXQ6AHPAU_exception@@@Z@Z 0041fdf6 f i libucrt:matherr.obj
 0001:0001edf6       ?initialize@?$dual_state_global@PAU__crt_locale_data@@@__crt_state_management@@QAEXQAU__crt_locale_data@@@Z 0041fdf6 f i libucrt:initialization.obj
 0001:0001edf6       ?initialize@?$dual_state_global@P6AXH@Z@__crt_state_management@@QAEXQ6AXH@Z@Z 0041fdf6 f i libucrt:signal.obj
 0001:0001edf6       ?initialize@?$dual_state_global@PAPAD@__crt_state_management@@QAEXQAPAD@Z 0041fdf6 f i libucrt:environment_initialization.obj
 0001:0001edf6       ?initialize@?$dual_state_global@PAU__crt_multibyte_data@@@__crt_state_management@@QAEXQAU__crt_multibyte_data@@@Z 0041fdf6 f i libucrt:mbctype.obj
 0001:0001edf6       ?initialize@?$dual_state_global@J@__crt_state_management@@QAEXJ@Z 0041fdf6 f i libucrt:timeset.obj
 0001:0001edf6       ?initialize@?$dual_state_global@P6AHI@Z@__crt_state_management@@QAEXQ6AHI@Z@Z 0041fdf6 f i libucrt:new_handler.obj
 0001:0001edf6       ?initialize@?$dual_state_global@H@__crt_state_management@@QAEXH@Z 0041fdf6 f i libucrt:timeset.obj
 0001:0001ee27       ___acrt_initialize_timeset 0041fe27 f   libucrt:timeset.obj
 0001:0001ee5e       __isleadbyte_l             0041fe5e f i libucrt:_wctype.obj
 0001:0001ee97       ___acrt_get_process_end_policy 0041fe97 f   libucrt:win_policies.obj
 0001:0001f36e       ___acrt_expand_narrow_argv_wildcards 0042036e f   libucrt:argv_wildcards.obj
 0001:0001f379       ??$?RV<lambda_ceb1ee4838e85a9d631eb091e2fbe199>@@AAV<lambda_ae742caa10f662c28703da3d2ea5e57e>@@V<lambda_cd08b5d6af4937fe54fc07d0c9bf6b37>@@@?$__crt_seh_guarded_call@X@@QAEX$$QAV<lambda_ceb1ee4838e85a9d631eb091e2fbe199>@@AAV<lambda_ae742caa10f662c28703da3d2ea5e57e>@@$$QAV<lambda_cd08b5d6af4937fe54fc07d0c9bf6b37>@@@Z 00420379 f i libucrt:mbctype.obj
 0001:0001f3bc       ??$__acrt_lock_and_call@V<lambda_ae742caa10f662c28703da3d2ea5e57e>@@@@YAXW4__acrt_lock_id@@$$QAV<lambda_ae742caa10f662c28703da3d2ea5e57e>@@@Z 004203bc f i libucrt:mbctype.obj
 0001:0001f8b1       ___acrt_initialize_multibyte 004208b1 f   libucrt:mbctype.obj
 0001:0001f8fe       ___acrt_update_thread_multibyte_data 004208fe f   libucrt:mbctype.obj
 0001:0001f912       __setmbcp_nolock           00420912 f   libucrt:mbctype.obj
 0001:0001fb3a       ___dcrt_get_narrow_environment_from_os 00420b3a f   libucrt:get_environment_from_os.obj
 0001:0001ff23       ___dcrt_set_variable_in_narrow_environment_nolock 00420f23 f   libucrt:setenv.obj
 0001:0001ff2e       __recalloc_base            00420f2e f   libucrt:recalloc.obj
 0001:0001ff9b       ___acrt_execute_initializers 00420f9b f   libucrt:shared_initialization.obj
 0001:0002001e       ___acrt_execute_uninitializers 0042101e f   libucrt:shared_initialization.obj
 0001:0002006b       _wcscat_s                  0042106b f   libucrt:wcscat_s.obj
 0001:000201ad       _wcsncpy_s                 004211ad f   libucrt:wcsncpy_s.obj
 0001:000201b8       ___acrt_lowio_create_handle_array 004211b8 f   libucrt:osfinfo.obj
 0001:00020232       ___acrt_lowio_destroy_handle_array 00421232 f   libucrt:osfinfo.obj
 0001:00020267       ___acrt_lowio_ensure_fh_exists 00421267 f   libucrt:osfinfo.obj
 0001:000202ff       ___acrt_lowio_lock_fh      004212ff f   libucrt:osfinfo.obj
 0001:00020322       ___acrt_lowio_set_os_handle 00421322 f   libucrt:osfinfo.obj
 0001:000203b6       ___acrt_lowio_unlock_fh    004213b6 f   libucrt:osfinfo.obj
 0001:000203d9       __alloc_osfhnd             004213d9 f   libucrt:osfinfo.obj
 0001:000204eb       __free_osfhnd              004214eb f   libucrt:osfinfo.obj
 0001:0002057c       __get_osfhandle            0042157c f   libucrt:osfinfo.obj
 0001:000205e6       ___acrt_locale_free_monetary 004215e6 f   libucrt:initmon.obj
 0001:000206e4       ___acrt_locale_initialize_monetary 004216e4 f   libucrt:initmon.obj
 0001:00020aa0       ___acrt_locale_free_numeric 00421aa0 f   libucrt:initnum.obj
 0001:00020b09       ___acrt_locale_initialize_numeric 00421b09 f   libucrt:initnum.obj
 0001:00020fde       ___acrt_locale_free_time   00421fde f   libucrt:inittime.obj
 0001:000210c2       ___acrt_locale_initialize_time 004220c2 f   libucrt:inittime.obj
 0001:00021141       _wcscspn                   00422141 f   libucrt:wcscspn.obj
 0001:00021191       _wcspbrk                   00422191 f   libucrt:wcspbrk.obj
 0001:000211d6       ___acrt_add_locale_ref     004221d6 f   libucrt:locale_refcounting.obj
 0001:00021253       ___acrt_free_locale        00422253 f   libucrt:locale_refcounting.obj
 0001:0002139d       ___acrt_locale_add_lc_time_reference 0042239d f   libucrt:locale_refcounting.obj
 0001:000213c6       ___acrt_locale_free_lc_time_if_unreferenced 004223c6 f   libucrt:locale_refcounting.obj
 0001:000213f6       ___acrt_locale_release_lc_time_reference 004223f6 f   libucrt:locale_refcounting.obj
 0001:0002141f       ___acrt_release_locale_ref 0042241f f   libucrt:locale_refcounting.obj
 0001:000214a0       ___acrt_update_thread_locale_data 004224a0 f   libucrt:locale_refcounting.obj
 0001:00021517       __updatetlocinfoEx_nolock  00422517 f   libucrt:locale_refcounting.obj
 0001:00021c65       ___acrt_get_qualified_locale 00422c65 f   libucrt:get_qualified_locale.obj
 0001:0002259d       ___acrt_get_qualified_locale_downlevel 0042359d f   libucrt:getqloc_downlevel.obj
 0001:0002284f       __clearfp                  0042384f f   libucrt:ieee87.obj
 0001:0002292d       __control87                0042392d f   libucrt:ieee87.obj
 0001:00022cc8       ___acrt_fp_strflt_to_string 00423cc8 f   libucrt:_fptostr.obj
 0001:00022d84       ___acrt_fltout             00423d84 f   libucrt:cfout.obj
 0001:000241f9       __isatty                   004251f9 f   libucrt:isatty.obj
 0001:0002430b       ___acrt_DownlevelLCIDToLocaleName 0042530b f   libucrt:lcidtoname_downlevel.obj
 0001:000243b5       ___acrt_DownlevelLocaleNameToLCID 004253b5 f   libucrt:lcidtoname_downlevel.obj
 0001:000243e1       __putwch_nolock            004253e1 f   libucrt:putwch.obj
 0001:00024905       __read                     00425905 f   libucrt:read.obj
 0001:00024a18       __read_nolock              00425a18 f   libucrt:read.obj
 0001:00024e7e       _strncpy_s                 00425e7e f   libucrt:strncpy_s.obj
 0001:00024e89       __wcsnicmp                 00425e89 f   libucrt:wcsnicmp.obj
 0001:00024f43       __wcsnicmp_l               00425f43 f   libucrt:wcsnicmp.obj
 0001:00025050       _strncmp                   00426050 f   libucrt:strncmp.obj
 0001:000250c8       __strnicmp                 004260c8 f   libucrt:strnicmp.obj
 0001:00025135       __strnicmp_l               00426135 f   libucrt:strnicmp.obj
 0001:000257c3       __wsopen_nolock            004267c3 f   libucrt:open.obj
 0001:00025aec       __wsopen_s                 00426aec f   libucrt:open.obj
 0001:00025daf       __getfpcontrolword         00426daf f   libucrt:_fenvutils.obj
 0001:00025df2       __getfpstatusword          00426df2 f   libucrt:_fenvutils.obj
 0001:00025e9a       __setfpcontrolword         00426e9a f   libucrt:_fenvutils.obj
 0001:00025f1a       __setfpstatusword          00426f1a f   libucrt:_fenvutils.obj
 0001:00025f9a       ___libm_error_support      00426f9a f   libucrt:libm_error.obj
 0001:000261b2       __87except                 004271b2 f   libucrt:87except.obj
 0001:000262bd       __frnd                     004272bd f   libucrt:frnd.obj
 0001:000262d3       __towlower_l               004272d3 f   libucrt:towlower.obj
 0001:00026480       _qsort                     00427480 f   libucrt:qsort.obj
 0001:00026820       _strpbrk                   00427820 f   libucrt:strpbrk.obj
 0001:00026860       __mbsdec                   00427860 f   libucrt:mbsdec.obj
 0001:00026877       __mbsdec_l                 00427877 f   libucrt:mbsdec.obj
 0001:00026913       __strnicoll                00427913 f   libucrt:strnicol.obj
 0001:0002693c       __strnicoll_l              0042793c f   libucrt:strnicol.obj
 0001:00026a06       __msize                    00427a06 f   libucrt:msize.obj
 0001:00026a11       __msize_base               00427a11 f   libucrt:msize.obj
 0001:00026b31       __itow_s                   00427b31 f   libucrt:xtoa.obj
 0001:00026b66       _fegetenv                  00427b66 f   libucrt:fegetenv.obj
 0001:00026b83       _fesetenv                  00427b83 f   libucrt:fesetenv.obj
 0001:00026bcc       _feholdexcept              00427bcc f   libucrt:feholdexcept.obj
 0001:00026c20       _log10                     00427c20 f   libucrt:log10.obj
 0001:00026c60       __CIlog10                  00427c60 f   libucrt:log10.obj
 0001:00026c9b       __CIlog10_default          00427c9b f   libucrt:log10.obj
 0001:00026caf       __log10_default            00427caf     libucrt:log10.obj
 0001:00026d70       _ceil                      00427d70 f   libucrt:ceil_pentium4.obj
 0001:00026db0       __ceil_pentium4            00427db0 f   libucrt:ceil_pentium4.obj
 0001:00026e8d       ___dcrt_lowio_initialize_console_output 00427e8d f   libucrt:initcon.obj
 0001:00026eac       ___dcrt_terminate_console_output 00427eac f   libucrt:initcon.obj
 0001:00026ed0       ___ascii_strnicmp          00427ed0 f   libucrt:_strnicm.obj
 0001:00026f31       __chsize_nolock            00427f31 f   libucrt:chsize.obj
 0001:000270c2       ___acrt_LCMapStringW       004280c2 f   libucrt:lcmapstringw.obj
 0001:000273a8       ___acrt_CompareStringA     004283a8 f   libucrt:comparestringa.obj
 0001:000273f0       __CIlog10_pentium4         004283f0 f   libucrt:log10_pentium4.obj
 0001:00027408       __log10_pentium4           00428408     libucrt:log10_pentium4.obj
 0001:00027680       __ceil_default             00428680 f   libucrt:ceil.obj
 0001:00027740       __FindPESection            00428740 f   LIBCMT:pesect.obj
 0001:00027790       __IsNonwritableInCurrentImage 00428790 f   LIBCMT:pesect.obj
 0001:00027850       __ValidateImageBase        00428850 f   LIBCMT:pesect.obj
 0001:00027890       __aulldvrm                 00428890 f   LIBCMT:ulldvrm.obj
 0001:00027930       __alldiv                   00428930 f   LIBCMT:lldiv.obj
 0001:000279e0       __alldvrm                  004289e0 f   LIBCMT:lldvrm.obj
 0001:00027ac0       __allshl                   00428ac0 f   LIBCMT:llshl.obj
 0001:00027ae0       __aullshr                  00428ae0 f   LIBCMT:ullshr.obj
 0001:00027b00       __SEH_prolog4_GS           00428b00 f   LIBCMT:_sehprolg4gs_.obj
 0001:00027b49       __SEH_epilog4_GS           00428b49 f   LIBCMT:_sehprolg4gs_.obj
 0001:00027b60       __ftol2_sse                00428b60 f   LIBCMT:_ftol2_.obj
 0001:00027b69       __ftol2_pentium4           00428b69 f   LIBCMT:_ftol2_.obj
 0001:00027b7c       __ftol2_sse_excpt          00428b7c f   LIBCMT:_ftol2_.obj
 0001:00027ba0       __ftol2                    00428ba0 f   LIBCMT:_ftol2_.obj
 0001:00027c16       _RtlUnwind@16              00428c16 f   kernel32:KERNEL32.dll
 0001:00027c20       _strrchr                   00428c20 f   libvcruntime:strrchr.obj
 0001:00027d60       _strchr                    00428d60 f   libvcruntime:strchr.obj
 0001:00027dce       ___from_strstr_to_strchr   00428dce     libvcruntime:strchr.obj
 0001:00027e8b       _wcschr                    00428e8b f   libvcruntime:wcschr.obj
 0001:00028b40       ??__F_Static@?1???$_Immortalize@V_Iostream_error_category@std@@@std@@YAAAV_Iostream_error_category@0@XZ@YAXXZ 00429b40 f i ObfuscateStrings.cpp.obj
 0002:00000000       __imp__RtlUnwind@16        0042a000     kernel32:KERNEL32.dll
 0002:00000004       __imp__HeapSize@12         0042a004     kernel32:KERNEL32.dll
 0002:00000008       __imp__GetCommandLineW@0   0042a008     kernel32:KERNEL32.dll
 0002:0000000c       __imp__SetConsoleCtrlHandler@8 0042a00c     kernel32:KERNEL32.dll
 0002:00000010       __imp__GetLastError@0      0042a010     kernel32:KERNEL32.dll
 0002:00000014       __imp__LocalFree@4         0042a014     kernel32:KERNEL32.dll
 0002:00000018       __imp__FormatMessageA@28   0042a018     kernel32:KERNEL32.dll
 0002:0000001c       __imp__WideCharToMultiByte@32 0042a01c     kernel32:KERNEL32.dll
 0002:00000020       __imp__MultiByteToWideChar@24 0042a020     kernel32:KERNEL32.dll
 0002:00000024       __imp__GetStringTypeW@16   0042a024     kernel32:KERNEL32.dll
 0002:00000028       __imp__EnterCriticalSection@4 0042a028     kernel32:KERNEL32.dll
 0002:0000002c       __imp__LeaveCriticalSection@4 0042a02c     kernel32:KERNEL32.dll
 0002:00000030       __imp__DeleteCriticalSection@4 0042a030     kernel32:KERNEL32.dll
 0002:00000034       __imp__EncodePointer@4     0042a034     kernel32:KERNEL32.dll
 0002:00000038       __imp__DecodePointer@4     0042a038     kernel32:KERNEL32.dll
 0002:0000003c       __imp__SetLastError@4      0042a03c     kernel32:KERNEL32.dll
 0002:00000040       __imp__InitializeCriticalSectionAndSpinCount@8 0042a040     kernel32:KERNEL32.dll
 0002:00000044       __imp__CreateEventW@16     0042a044     kernel32:KERNEL32.dll
 0002:00000048       __imp__TlsAlloc@0          0042a048     kernel32:KERNEL32.dll
 0002:0000004c       __imp__TlsGetValue@4       0042a04c     kernel32:KERNEL32.dll
 0002:00000050       __imp__TlsSetValue@8       0042a050     kernel32:KERNEL32.dll
 0002:00000054       __imp__TlsFree@4           0042a054     kernel32:KERNEL32.dll
 0002:00000058       __imp__GetSystemTimeAsFileTime@4 0042a058     kernel32:KERNEL32.dll
 0002:0000005c       __imp__GetModuleHandleW@4  0042a05c     kernel32:KERNEL32.dll
 0002:00000060       __imp__GetProcAddress@8    0042a060     kernel32:KERNEL32.dll
 0002:00000064       __imp__CompareStringW@24   0042a064     kernel32:KERNEL32.dll
 0002:00000068       __imp__LCMapStringW@24     0042a068     kernel32:KERNEL32.dll
 0002:0000006c       __imp__GetLocaleInfoW@16   0042a06c     kernel32:KERNEL32.dll
 0002:00000070       __imp__GetCPInfo@8         0042a070     kernel32:KERNEL32.dll
 0002:00000074       __imp__CloseHandle@4       0042a074     kernel32:KERNEL32.dll
 0002:00000078       __imp__SetEvent@4          0042a078     kernel32:KERNEL32.dll
 0002:0000007c       __imp__ResetEvent@4        0042a07c     kernel32:KERNEL32.dll
 0002:00000080       __imp__WaitForSingleObjectEx@12 0042a080     kernel32:KERNEL32.dll
 0002:00000084       __imp__IsProcessorFeaturePresent@4 0042a084     kernel32:KERNEL32.dll
 0002:00000088       __imp__IsDebuggerPresent@0 0042a088     kernel32:KERNEL32.dll
 0002:0000008c       __imp__UnhandledExceptionFilter@4 0042a08c     kernel32:KERNEL32.dll
 0002:00000090       __imp__SetUnhandledExceptionFilter@4 0042a090     kernel32:KERNEL32.dll
 0002:00000094       __imp__GetStartupInfoW@4   0042a094     kernel32:KERNEL32.dll
 0002:00000098       __imp__GetCurrentProcess@0 0042a098     kernel32:KERNEL32.dll
 0002:0000009c       __imp__TerminateProcess@8  0042a09c     kernel32:KERNEL32.dll
 0002:000000a0       __imp__QueryPerformanceCounter@4 0042a0a0     kernel32:KERNEL32.dll
 0002:000000a4       __imp__GetCurrentProcessId@0 0042a0a4     kernel32:KERNEL32.dll
 0002:000000a8       __imp__GetCurrentThreadId@0 0042a0a8     kernel32:KERNEL32.dll
 0002:000000ac       __imp__InitializeSListHead@4 0042a0ac     kernel32:KERNEL32.dll
 0002:000000b0       __imp__RaiseException@16   0042a0b0     kernel32:KERNEL32.dll
 0002:000000b4       __imp__SetEndOfFile@4      0042a0b4     kernel32:KERNEL32.dll
 0002:000000b8       __imp__FreeLibrary@4       0042a0b8     kernel32:KERNEL32.dll
 0002:000000bc       __imp__LoadLibraryExW@12   0042a0bc     kernel32:KERNEL32.dll
 0002:000000c0       __imp__QueryPerformanceFrequency@4 0042a0c0     kernel32:KERNEL32.dll
 0002:000000c4       __imp__HeapAlloc@12        0042a0c4     kernel32:KERNEL32.dll
 0002:000000c8       __imp__HeapFree@12         0042a0c8     kernel32:KERNEL32.dll
 0002:000000cc       __imp__HeapReAlloc@16      0042a0cc     kernel32:KERNEL32.dll
 0002:000000d0       __imp__ExitProcess@4       0042a0d0     kernel32:KERNEL32.dll
 0002:000000d4       __imp__GetModuleHandleExW@12 0042a0d4     kernel32:KERNEL32.dll
 0002:000000d8       __imp__GetModuleFileNameA@12 0042a0d8     kernel32:KERNEL32.dll
 0002:000000dc       __imp__GetStdHandle@4      0042a0dc     kernel32:KERNEL32.dll
 0002:000000e0       __imp__WriteFile@20        0042a0e0     kernel32:KERNEL32.dll
 0002:000000e4       __imp__GetCommandLineA@0   0042a0e4     kernel32:KERNEL32.dll
 0002:000000e8       __imp__GetACP@0            0042a0e8     kernel32:KERNEL32.dll
 0002:000000ec       __imp__GetFileType@4       0042a0ec     kernel32:KERNEL32.dll
 0002:000000f0       __imp__IsValidLocale@8     0042a0f0     kernel32:KERNEL32.dll
 0002:000000f4       __imp__GetUserDefaultLCID@0 0042a0f4     kernel32:KERNEL32.dll
 0002:000000f8       __imp__EnumSystemLocalesW@8 0042a0f8     kernel32:KERNEL32.dll
 0002:000000fc       __imp__FlushFileBuffers@4  0042a0fc     kernel32:KERNEL32.dll
 0002:00000100       __imp__GetConsoleCP@0      0042a100     kernel32:KERNEL32.dll
 0002:00000104       __imp__GetConsoleMode@8    0042a104     kernel32:KERNEL32.dll
 0002:00000108       __imp__ReadFile@20         0042a108     kernel32:KERNEL32.dll
 0002:0000010c       __imp__SetFilePointerEx@20 0042a10c     kernel32:KERNEL32.dll
 0002:00000110       __imp__GetProcessHeap@0    0042a110     kernel32:KERNEL32.dll
 0002:00000114       __imp__FindClose@4         0042a114     kernel32:KERNEL32.dll
 0002:00000118       __imp__FindFirstFileExA@24 0042a118     kernel32:KERNEL32.dll
 0002:0000011c       __imp__FindNextFileA@8     0042a11c     kernel32:KERNEL32.dll
 0002:00000120       __imp__IsValidCodePage@4   0042a120     kernel32:KERNEL32.dll
 0002:00000124       __imp__GetOEMCP@0          0042a124     kernel32:KERNEL32.dll
 0002:00000128       __imp__GetEnvironmentStringsW@0 0042a128     kernel32:KERNEL32.dll
 0002:0000012c       __imp__FreeEnvironmentStringsW@4 0042a12c     kernel32:KERNEL32.dll
 0002:00000130       __imp__SetEnvironmentVariableA@8 0042a130     kernel32:KERNEL32.dll
 0002:00000134       __imp__SetStdHandle@8      0042a134     kernel32:KERNEL32.dll
 0002:00000138       __imp__WriteConsoleW@20    0042a138     kernel32:KERNEL32.dll
 0002:0000013c       __imp__ReadConsoleW@20     0042a13c     kernel32:KERNEL32.dll
 0002:00000140       __imp__CreateFileW@28      0042a140     kernel32:KERNEL32.dll
 0002:00000144       \177KERNEL32_NULL_THUNK_DATA 0042a144     kernel32:KERNEL32.dll
 0002:00000148       __imp__CommandLineToArgvW@8 0042a148     Shell32:SHELL32.dll
 0002:0000014c       \177SHELL32_NULL_THUNK_DATA 0042a14c     Shell32:SHELL32.dll
 0002:00000150       ___guard_check_icall_fptr  0042a150     LIBCMT:guard_support.obj
 0002:00000154       ___xc_a                    0042a154     LIBCMT:initializers.obj
 0002:000001a0       ___xc_z                    0042a1a0     LIBCMT:initializers.obj
 0002:000001a4       ___xi_a                    0042a1a4     LIBCMT:initializers.obj
 0002:000001b8       ___acrt_stdio_initializer  0042a1b8     libucrt:stdio_initializer.obj
 0002:000001bc       ___acrt_clock_initializer  0042a1bc     libucrt:clock_initializer.obj
 0002:000001c0       ___acrt_tran_sse2_initializer 0042a1c0     libucrt:sse2_initializer.obj
 0002:000001c4       ___acrt_timeset_initializer 0042a1c4     libucrt:timeset_initializer.obj
 0002:000001c8       ___acrt_multibyte_initializer 0042a1c8     libucrt:multibyte_initializer.obj
 0002:000001cc       ___xi_z                    0042a1cc     LIBCMT:initializers.obj
 0002:000001d0       ___xl_a                    0042a1d0     LIBCMT:tlssup.obj
 0002:000001d4       ___xl_z                    0042a1d4     LIBCMT:tlssup.obj
 0002:000001d8       ___xp_a                    0042a1d8     LIBCMT:initializers.obj
 0002:000001dc       ___acrt_locale_terminator  0042a1dc     libucrt:locale_initializer.obj
 0002:000001e0       ___dcrt_console_output_terminator 0042a1e0     libucrt:console_output_initializer.obj
 0002:000001e4       ___acrt_stdio_terminator   0042a1e4     libucrt:stdio_initializer.obj
 0002:000001e8       ___xp_z                    0042a1e8     LIBCMT:initializers.obj
 0002:000001ec       ___xt_a                    0042a1ec     LIBCMT:initializers.obj
 0002:000001f0       ___xt_z                    0042a1f0     LIBCMT:initializers.obj
 0002:00000204       ??_7exception@std@@6B@     0042a204     ObfuscateStrings.cpp.obj
 0002:0000020c       ??_C@_0BC@EOODALEL@Unknown?5exception?$AA@ 0042a20c     ObfuscateStrings.cpp.obj
 0002:00000224       ??_7runtime_error@std@@6B@ 0042a224     ObfuscateStrings.cpp.obj
 0002:00000230       ??_7bad_cast@std@@6B@      0042a230     ObfuscateStrings.cpp.obj
 0002:00000238       ??_C@_08EPJLHIJG@bad?5cast?$AA@ 0042a238     ObfuscateStrings.cpp.obj
 0002:00000244       ??_C@_0BA@ELKIONDK@bad?5locale?5name?$AA@ 0042a244     ObfuscateStrings.cpp.obj
 0002:00000254       ??_C@_05LAPONLG@false?$AA@ 0042a254     ObfuscateStrings.cpp.obj
 0002:0000025c       ??_C@_04LOAJBDKD@true?$AA@ 0042a25c     ObfuscateStrings.cpp.obj
 0002:00000268       ??_7_Facet_base@std@@6B@   0042a268     ObfuscateStrings.cpp.obj
 0002:00000274       ??_C@_00CNPNBAHC@?$AA@     0042a274     ObfuscateStrings.cpp.obj
 0002:0000027c       ??_7?$ctype@D@std@@6B@     0042a27c     ObfuscateStrings.cpp.obj
 0002:000002ac       ??_7?$ctype@_W@std@@6B@    0042a2ac     ObfuscateStrings.cpp.obj
 0002:000002ec       ??_7error_category@std@@6B@ 0042a2ec     ObfuscateStrings.cpp.obj
 0002:00000308       ??_7_System_error@std@@6B@ 0042a308     ObfuscateStrings.cpp.obj
 0002:00000310       ??_C@_02LMMGGCAJ@?3?5?$AA@ 0042a310     ObfuscateStrings.cpp.obj
 0002:00000318       ??_7system_error@std@@6B@  0042a318     ObfuscateStrings.cpp.obj
 0002:00000324       ??_7_Iostream_error_category@std@@6B@ 0042a324     ObfuscateStrings.cpp.obj
 0002:0000033c       ??_C@_08LLGCOLLL@iostream?$AA@ 0042a33c     ObfuscateStrings.cpp.obj
 0002:00000348       ??_C@_0BG@PADBLCHM@iostream?5stream?5error?$AA@ 0042a348     ObfuscateStrings.cpp.obj
 0002:00000364       ??_7failure@ios_base@std@@6B@ 0042a364     ObfuscateStrings.cpp.obj
 0002:0000036c       ??_C@_0BF@PHHKMMFD@ios_base?3?3badbit?5set?$AA@ 0042a36c     ObfuscateStrings.cpp.obj
 0002:00000384       ??_C@_0BG@FMKFHCIL@ios_base?3?3failbit?5set?$AA@ 0042a384     ObfuscateStrings.cpp.obj
 0002:0000039c       ??_C@_0BF@OOHOMBOF@ios_base?3?3eofbit?5set?$AA@ 0042a39c     ObfuscateStrings.cpp.obj
 0002:000003b4       ??_C@_0L@HBCGKPJN@Canceling?6?$AA@ 0042a3b4     ObfuscateStrings.cpp.obj
 0002:000003c0       ??_C@_1BA@FEPENJBN@?$AA?9?$AAb?$AAa?$AAc?$AAk?$AAu?$AAp?$AA?$AA@ 0042a3c0     ObfuscateStrings.cpp.obj
 0002:000003d0       ??_C@_1O@POKMFLDB@?$AA?9?$AAf?$AAi?$AAl?$AAe?$AA?3?$AA?$AA@ 0042a3d0     ObfuscateStrings.cpp.obj
 0002:000003e0       ??_C@_0BN@GJCPKLEB@?$CK?$CK?$CK?$CK?$CK?$CK?$CK?$CK?$CK?$CK?$CK?$CK?$CK?$CK?$CK?$CK?$CK?$CK?$CK?$CK?$CK?$CK?$CK?$CK?$CK?$CK?$CK?6?$AA@ 0042a3e0     ObfuscateStrings.cpp.obj
 0002:00000400       ??_C@_0DC@LCNJKBHL@Usage?3?5ObfuscateStrings?5?9file?3FI@ 0042a400     ObfuscateStrings.cpp.obj
 0002:00000438       ??_C@_0II@DNDMBOBO@?6If?5?9backup?5is?5specified?0?5the?5or@ 0042a438     ObfuscateStrings.cpp.obj
 0002:000004c0       ??_C@_0GJ@GKNGEDJO@?6?5The?5strings?5to?5be?5obfuscated?5M@ 0042a4c0     ObfuscateStrings.cpp.obj
 0002:0000052c       ??_C@_01EEMJAFIK@?6?$AA@   0042a52c     ObfuscateStrings.cpp.obj
 0002:00000530       ??_C@_0P@LEOPELLC@file?3?5?5?5?5?5?5?5?5?5?$AA@ 0042a530     ObfuscateStrings.cpp.obj
 0002:00000540       ??_C@_0CF@PCFDLJKG@Total?5Strings?5Found?5and?5Obfuscat@ 0042a540     ObfuscateStrings.cpp.obj
 0002:0000056c       ??_7?$num_put@DV?$ostreambuf_iterator@DU?$char_traits@D@std@@@std@@@std@@6B@ 0042a56c     ObfuscateStrings.cpp.obj
 0002:00000598       ??_C@_02BBAHNLBA@?$CFp?$AA@ 0042a598     ObfuscateStrings.cpp.obj
 0002:0000059c       ??_C@_02CLHGNPPK@Lu?$AA@   0042a59c     ObfuscateStrings.cpp.obj
 0002:000005a0       ??_C@_02HIKPPMOK@Ld?$AA@   0042a5a0     ObfuscateStrings.cpp.obj
 0002:000005a4       ??_C@_02BDDLJJBK@lu?$AA@   0042a5a4     ObfuscateStrings.cpp.obj
 0002:000005a8       ??_C@_02EAOCLKAK@ld?$AA@   0042a5a8     ObfuscateStrings.cpp.obj
 0002:000005b0       ??_7?$numpunct@D@std@@6B@  0042a5b0     ObfuscateStrings.cpp.obj
 0002:000005d0       ??_C@_02MDKMJEGG@eE?$AA@   0042a5d0     ObfuscateStrings.cpp.obj
 0002:000005d4       ??_C@_02OOPEBDOJ@pP?$AA@   0042a5d4     ObfuscateStrings.cpp.obj
 0002:000005d8       ??_C@_0BA@JFNIOLAK@string?5too?5long?$AA@ 0042a5d8     ObfuscateStrings.cpp.obj
 0002:000005e8       ??_C@_0BI@CFPLBAOH@invalid?5string?5position?$AA@ 0042a5e8     ObfuscateStrings.cpp.obj
 0002:00000600       __real@4202a05f20000000    0042a600     ObfuscateStrings.cpp.obj
 0002:00000610       __xmm@7fffffffffffffff7fffffffffffffff 0042a610     ObfuscateStrings.cpp.obj
 0002:00000620       ??_C@_0N@GNICPICM@?$CK?$CKOB_START?$CK?$CK?$AA@ 0042a620     StringScanner.cpp.obj
 0002:00000630       ??_C@_0N@OHGAGJKN@?$CK?$CK?$CKOB_END?$CK?$CK?$CK?$AA@ 0042a630     StringScanner.cpp.obj
 0002:00000640       ??_C@_1BK@JADDPNKF@?$AA?$CK?$AA?$CK?$AAO?$AAB?$AA_?$AAS?$AAT?$AAA?$AAR?$AAT?$AA?$CK?$AA?$CK?$AA?$AA@ 0042a640     StringScanner.cpp.obj
 0002:0000065c       ??_C@_1BK@EPFDMNJB@?$AA?$CK?$AA?$CK?$AA?$CK?$AAO?$AAB?$AA_?$AAE?$AAN?$AAD?$AA?$CK?$AA?$CK?$AA?$CK?$AA?$AA@ 0042a65c     StringScanner.cpp.obj
 0002:0000067c       ??_7ios_base@std@@6B@      0042a67c     StringScanner.cpp.obj
 0002:00000680       ??_C@_0O@NIPGCINC@Unknown?5error?$AA@ 0042a680     StringScanner.cpp.obj
 0002:00000690       ??_C@_0BP@JKDNHPNH@Not?5enough?5chars?5to?5obfuscate?$CB?$AA@ 0042a690     StringScanner.cpp.obj
 0002:000006b0       ??_C@_0EN@DLBECJED@Can?8t?5obfuscate?5string?5that?5is?5n@ 0042a6b0     StringScanner.cpp.obj
 0002:00000704       ??_7?$basic_ios@DU?$char_traits@D@std@@@std@@6B@ 0042a704     StringScanner.cpp.obj
 0002:0000070c       ??_7?$basic_istream@DU?$char_traits@D@std@@@std@@6B@ 0042a70c     StringScanner.cpp.obj
 0002:00000714       ??_7?$basic_ostream@DU?$char_traits@D@std@@@std@@6B@ 0042a714     StringScanner.cpp.obj
 0002:00000718       ??_8?$basic_ostream@DU?$char_traits@D@std@@@std@@7B@ 0042a718     StringScanner.cpp.obj
 0002:00000724       ??_7?$basic_iostream@DU?$char_traits@D@std@@@std@@6B@ 0042a724     StringScanner.cpp.obj
 0002:00000728       ??_8?$basic_iostream@DU?$char_traits@D@std@@@std@@7B?$basic_istream@DU?$char_traits@D@std@@@1@@ 0042a728     StringScanner.cpp.obj
 0002:00000730       ??_8?$basic_iostream@DU?$char_traits@D@std@@@std@@7B?$basic_ostream@DU?$char_traits@D@std@@@1@@ 0042a730     StringScanner.cpp.obj
 0002:0000073c       ??_7?$basic_streambuf@DU?$char_traits@D@std@@@std@@6B@ 0042a73c     StringScanner.cpp.obj
 0002:0000077c       ??_7?$basic_filebuf@DU?$char_traits@D@std@@@std@@6B@ 0042a77c     StringScanner.cpp.obj
 0002:000007bc       ??_7?$basic_fstream@DU?$char_traits@D@std@@@std@@6B@ 0042a7bc     StringScanner.cpp.obj
 0002:000007c0       ??_8?$basic_fstream@DU?$char_traits@D@std@@@std@@7B?$basic_istream@DU?$char_traits@D@std@@@1@@ 0042a7c0     StringScanner.cpp.obj
 0002:000007c8       ??_8?$basic_fstream@DU?$char_traits@D@std@@@std@@7B?$basic_ostream@DU?$char_traits@D@std@@@1@@ 0042a7c8     StringScanner.cpp.obj
 0002:000007d0       ??_C@_1CI@PPKHCJOK@?$AAC?$AAo?$AAu?$AAl?$AAd?$AAn?$AA?8?$AAt?$AA?5?$AAo?$AAp?$AAe?$AAn?$AA?5?$AAf?$AAi?$AAl?$AAe?$AA?$CB?$AA?$AA@ 0042a7d0     StringScanner.cpp.obj
 0002:000007f8       ??_C@_1CI@JAMNKEHL@?$AAC?$AAo?$AAu?$AAl?$AAd?$AAn?$AA?8?$AAt?$AA?5?$AAr?$AAe?$AAa?$AAd?$AA?5?$AAf?$AAi?$AAl?$AAe?$AA?$CB?$AA?$AA@ 0042a7f8     StringScanner.cpp.obj
 0002:00000820       ??_C@_0BH@CINGPCPG@Making?5backup?5file?4?4?4?6?$AA@ 0042a820     StringScanner.cpp.obj
 0002:00000838       ??_C@_1BA@MDCEPGH@?$AA_?$AAb?$AAa?$AAc?$AAk?$AAu?$AAp?$AA?$AA@ 0042a838     StringScanner.cpp.obj
 0002:00000848       ??_C@_0EB@DOJOCJL@Cant?5write?5output?5file?5?9?5Strings@ 0042a848     StringScanner.cpp.obj
 0002:00000890       ??_7?$codecvt@DDU_Mbstatet@@@std@@6B@ 0042a890     StringScanner.cpp.obj
 0002:000008b8       ??_C@_0BD@OLBABOEK@vector?$DMT?$DO?5too?5long?$AA@ 0042a8b8     StringScanner.cpp.obj
 0002:000008d0       ??_7bad_alloc@std@@6B@     0042a8d0     libcpmt:xthrow.obj
 0002:000008d8       ??_C@_0P@GHFPNOJB@bad?5allocation?$AA@ 0042a8d8     libcpmt:xthrow.obj
 0002:000008ec       ??_7logic_error@std@@6B@   0042a8ec     libcpmt:xthrow.obj
 0002:000008f8       ??_7length_error@std@@6B@  0042a8f8     libcpmt:xthrow.obj
 0002:00000904       ??_7out_of_range@std@@6B@  0042a904     libcpmt:xthrow.obj
 0002:00000910       ??_7_Locimp@locale@std@@6B@ 0042a910     libcpmt:locale0.obj
 0002:0000091c       ??_C@_01NBENCBCI@?$CK?$AA@ 0042a91c     libcpmt:locale0.obj
 0002:00000920       ??_C@_01GFHCPBMG@C?$AA@    0042a920     libcpmt:locale0.obj
 0002:00000924       ??_C@_0BD@JPHBMONG@identifier?5removed?$AA@ 0042a924     libcpmt:syserror.obj
 0002:00000938       ??_C@_0BG@CDNPAGJK@illegal?5byte?5sequence?$AA@ 0042a938     libcpmt:syserror.obj
 0002:00000950       ??_C@_0CD@BNPLBMNA@inappropriate?5io?5control?5operati@ 0042a950     libcpmt:syserror.obj
 0002:00000974       ??_C@_0M@EGEKIIMP@interrupted?$AA@ 0042a974     libcpmt:syserror.obj
 0002:00000980       ??_C@_0BB@FCMFBGOM@invalid?5argument?$AA@ 0042a980     libcpmt:syserror.obj
 0002:00000994       ??_C@_0N@OHAFKDEK@invalid?5seek?$AA@ 0042a994     libcpmt:syserror.obj
 0002:000009a4       ??_C@_08GLNPIFBN@io?5error?$AA@ 0042a9a4     libcpmt:syserror.obj
 0002:000009b0       ??_C@_0P@FLLDBIDK@is?5a?5directory?$AA@ 0042a9b0     libcpmt:syserror.obj
 0002:000009c0       ??_C@_0N@IFLPBIOP@message?5size?$AA@ 0042a9c0     libcpmt:syserror.obj
 0002:000009d0       ??_C@_0N@KIIEAAIO@network?5down?$AA@ 0042a9d0     libcpmt:syserror.obj
 0002:000009e0       ??_C@_0O@FNPDBHEE@network?5reset?$AA@ 0042a9e0     libcpmt:syserror.obj
 0002:000009f0       ??_C@_0BE@IFNCKGE@network?5unreachable?$AA@ 0042a9f0     libcpmt:syserror.obj
 0002:00000a04       ??_C@_0BA@PFFCAOFK@no?5buffer?5space?$AA@ 0042aa04     libcpmt:syserror.obj
 0002:00000a14       ??_C@_0BB@IEPBLJHK@no?5child?5process?$AA@ 0042aa14     libcpmt:syserror.obj
 0002:00000a28       ??_C@_07PLECNNKG@no?5link?$AA@ 0042aa28     libcpmt:syserror.obj
 0002:00000a30       ??_C@_0BC@NJECKMKE@no?5lock?5available?$AA@ 0042aa30     libcpmt:syserror.obj
 0002:00000a44       ??_C@_0BF@PBGGPKKE@no?5message?5available?$AA@ 0042aa44     libcpmt:syserror.obj
 0002:00000a5c       ??_C@_0L@EDOLMPAK@no?5message?$AA@ 0042aa5c     libcpmt:syserror.obj
 0002:00000a68       ??_C@_0BD@EAMBFIDF@no?5protocol?5option?$AA@ 0042aa68     libcpmt:syserror.obj
 0002:00000a7c       ??_C@_0BD@IJDJKDEA@no?5space?5on?5device?$AA@ 0042aa7c     libcpmt:syserror.obj
 0002:00000a90       ??_C@_0BE@MKFDAFMP@no?5stream?5resources?$AA@ 0042aa90     libcpmt:syserror.obj
 0002:00000aa4       ??_C@_0BK@IMCPHCBI@no?5such?5device?5or?5address?$AA@ 0042aaa4     libcpmt:syserror.obj
 0002:00000ac0       ??_C@_0P@FDINDDOK@no?5such?5device?$AA@ 0042aac0     libcpmt:syserror.obj
 0002:00000ad0       ??_C@_0BK@NDOCBPGE@no?5such?5file?5or?5directory?$AA@ 0042aad0     libcpmt:syserror.obj
 0002:00000aec       ??_C@_0BA@ENLPPKBN@no?5such?5process?$AA@ 0042aaec     libcpmt:syserror.obj
 0002:00000afc       ??_C@_0BA@DOCPFFJG@not?5a?5directory?$AA@ 0042aafc     libcpmt:syserror.obj
 0002:00000b0c       ??_C@_0N@POEIPGGF@not?5a?5socket?$AA@ 0042ab0c     libcpmt:syserror.obj
 0002:00000b1c       ??_C@_0N@LGAPMMPI@not?5a?5stream?$AA@ 0042ab1c     libcpmt:syserror.obj
 0002:00000b2c       ??_C@_0O@GLMIBBEG@not?5connected?$AA@ 0042ab2c     libcpmt:syserror.obj
 0002:00000b3c       ??_C@_0BC@ENOOLCNF@not?5enough?5memory?$AA@ 0042ab3c     libcpmt:syserror.obj
 0002:00000b50       ??_C@_0O@NHEDABJP@not?5supported?$AA@ 0042ab50     libcpmt:syserror.obj
 0002:00000b60       ??_C@_0BD@MOLBPMEA@operation?5canceled?$AA@ 0042ab60     libcpmt:syserror.obj
 0002:00000b74       ??_C@_0BG@KDKHOPCO@operation?5in?5progress?$AA@ 0042ab74     libcpmt:syserror.obj
 0002:00000b8c       ??_C@_0BI@OHIEJAAB@operation?5not?5permitted?$AA@ 0042ab8c     libcpmt:syserror.obj
 0002:00000ba4       ??_C@_0BI@LNEGIFLN@operation?5not?5supported?$AA@ 0042aba4     libcpmt:syserror.obj
 0002:00000bbc       ??_C@_0BG@OEMDKMEE@operation?5would?5block?$AA@ 0042abbc     libcpmt:syserror.obj
 0002:00000bd4       ??_C@_0L@BLPOFLNJ@owner?5dead?$AA@ 0042abd4     libcpmt:syserror.obj
 0002:00000be0       ??_C@_0BC@CIJDGCDI@permission?5denied?$AA@ 0042abe0     libcpmt:syserror.obj
 0002:00000bf4       ??_C@_0P@FNPOCJBE@protocol?5error?$AA@ 0042abf4     libcpmt:syserror.obj
 0002:00000c04       ??_C@_0BH@JPPPLHJB@protocol?5not?5supported?$AA@ 0042ac04     libcpmt:syserror.obj
 0002:00000c1c       ??_C@_0BG@EICBIHDP@read?5only?5file?5system?$AA@ 0042ac1c     libcpmt:syserror.obj
 0002:00000c34       ??_C@_0BO@BJBOMOEJ@resource?5deadlock?5would?5occur?$AA@ 0042ac34     libcpmt:syserror.obj
 0002:00000c54       ??_C@_0BP@LKNGHENJ@resource?5unavailable?5try?5again?$AA@ 0042ac54     libcpmt:syserror.obj
 0002:00000c74       ??_C@_0BE@GOIPJJHG@result?5out?5of?5range?$AA@ 0042ac74     libcpmt:syserror.obj
 0002:00000c88       ??_C@_0BG@MPLKFPAE@state?5not?5recoverable?$AA@ 0042ac88     libcpmt:syserror.obj
 0002:00000ca0       ??_C@_0P@DIIFGFCG@stream?5timeout?$AA@ 0042aca0     libcpmt:syserror.obj
 0002:00000cb0       ??_C@_0P@IPFDMIFL@text?5file?5busy?$AA@ 0042acb0     libcpmt:syserror.obj
 0002:00000cc0       ??_C@_09KJPPMAOI@timed?5out?$AA@ 0042acc0     libcpmt:syserror.obj
 0002:00000ccc       ??_C@_0BO@HACHBEKI@too?5many?5files?5open?5in?5system?$AA@ 0042accc     libcpmt:syserror.obj
 0002:00000cec       ??_C@_0BE@GHAFMPAH@too?5many?5files?5open?$AA@ 0042acec     libcpmt:syserror.obj
 0002:00000d00       ??_C@_0P@HCOMKFCC@too?5many?5links?$AA@ 0042ad00     libcpmt:syserror.obj
 0002:00000d10       ??_C@_0BO@EFGOJEF@too?5many?5symbolic?5link?5levels?$AA@ 0042ad10     libcpmt:syserror.obj
 0002:00000d30       ??_C@_0BA@KGKGOOJA@value?5too?5large?$AA@ 0042ad30     libcpmt:syserror.obj
 0002:00000d40       ??_C@_0BE@MIEJDDNH@wrong?5protocol?5type?$AA@ 0042ad40     libcpmt:syserror.obj
 0002:00001218       ??_C@_0BN@LKKBCCDB@address?5family?5not?5supported?$AA@ 0042b218     libcpmt:syserror.obj
 0002:00001238       ??_C@_0P@LDMLAFHI@address?5in?5use?$AA@ 0042b238     libcpmt:syserror.obj
 0002:00001248       ??_C@_0BG@DHPCNBJB@address?5not?5available?$AA@ 0042b248     libcpmt:syserror.obj
 0002:00001260       ??_C@_0BC@DFIBIBIL@already?5connected?$AA@ 0042b260     libcpmt:syserror.obj
 0002:00001274       ??_C@_0BH@CAKOHOMI@argument?5list?5too?5long?$AA@ 0042b274     libcpmt:syserror.obj
 0002:0000128c       ??_C@_0BH@CGIMPKIM@argument?5out?5of?5domain?$AA@ 0042b28c     libcpmt:syserror.obj
 0002:000012a4       ??_C@_0M@KGHGGJGL@bad?5address?$AA@ 0042b2a4     libcpmt:syserror.obj
 0002:000012b0       ??_C@_0BE@MPJPGCEO@bad?5file?5descriptor?$AA@ 0042b2b0     libcpmt:syserror.obj
 0002:000012c4       ??_C@_0M@PMMIEFCP@bad?5message?$AA@ 0042b2c4     libcpmt:syserror.obj
 0002:000012d0       ??_C@_0M@KPHOFDBE@broken?5pipe?$AA@ 0042b2d0     libcpmt:syserror.obj
 0002:000012dc       ??_C@_0BD@MGNDDEGM@connection?5aborted?$AA@ 0042b2dc     libcpmt:syserror.obj
 0002:000012f0       ??_C@_0BP@KAIHPOGN@connection?5already?5in?5progress?$AA@ 0042b2f0     libcpmt:syserror.obj
 0002:00001310       ??_C@_0BD@PJLIIJEL@connection?5refused?$AA@ 0042b310     libcpmt:syserror.obj
 0002:00001324       ??_C@_0BB@IECNJNOI@connection?5reset?$AA@ 0042b324     libcpmt:syserror.obj
 0002:00001338       ??_C@_0BC@PPHBOELF@cross?5device?5link?$AA@ 0042b338     libcpmt:syserror.obj
 0002:0000134c       ??_C@_0BN@KDMIFEIP@destination?5address?5required?$AA@ 0042b34c     libcpmt:syserror.obj
 0002:0000136c       ??_C@_0BI@NGCEHDD@device?5or?5resource?5busy?$AA@ 0042b36c     libcpmt:syserror.obj
 0002:00001384       ??_C@_0BE@JIDOCPHM@directory?5not?5empty?$AA@ 0042b384     libcpmt:syserror.obj
 0002:00001398       ??_C@_0BI@BNCLIGPB@executable?5format?5error?$AA@ 0042b398     libcpmt:syserror.obj
 0002:000013b0       ??_C@_0M@MIDIAGJP@file?5exists?$AA@ 0042b3b0     libcpmt:syserror.obj
 0002:000013bc       ??_C@_0P@DNAJLBJK@file?5too?5large?$AA@ 0042b3bc     libcpmt:syserror.obj
 0002:000013cc       ??_C@_0BC@EJHOMAAK@filename?5too?5long?$AA@ 0042b3cc     libcpmt:syserror.obj
 0002:000013e0       ??_C@_0BH@KEFGLDAF@function?5not?5supported?$AA@ 0042b3e0     libcpmt:syserror.obj
 0002:000013f8       ??_C@_0BB@DHFDFGDM@host?5unreachable?$AA@ 0042b3f8     libcpmt:syserror.obj
 0002:0000140c       ??_C@_0O@BFJCFAAK@unknown?5error?$AA@ 0042b40c     libcpmt:syserror.obj
 0002:00001420       ??_7?$codecvt@_WDU_Mbstatet@@@std@@6B@ 0042b420     libcpmt:wcout.obj
 0002:0000144c       ??_7?$basic_streambuf@_WU?$char_traits@_W@std@@@std@@6B@ 0042b44c     libcpmt:wcout.obj
 0002:0000148c       ??_7?$basic_filebuf@_WU?$char_traits@_W@std@@@std@@6B@ 0042b48c     libcpmt:wcout.obj
 0002:000014cc       ??_7?$basic_ios@_WU?$char_traits@_W@std@@@std@@6B@ 0042b4cc     libcpmt:wcout.obj
 0002:000014d4       ??_7?$basic_ostream@_WU?$char_traits@_W@std@@@std@@6B@ 0042b4d4     libcpmt:wcout.obj
 0002:000014d8       ??_8?$basic_ostream@_WU?$char_traits@_W@std@@@std@@7B@ 0042b4d8     libcpmt:wcout.obj
 0002:000014e0       ?_BADOFF@std@@3_JB         0042b4e0     libcpmt:ios.obj
 0002:00001524       ??_C@_13BPINEIPE@?$AAr?$AA?$AA@ 0042b524     libcpmt:fiopen.obj
 0002:00001528       ??_C@_13CIFDLIMG@?$AAw?$AA?$AA@ 0042b528     libcpmt:fiopen.obj
 0002:0000152c       ??_C@_13FNCBLAIF@?$AAa?$AA?$AA@ 0042b52c     libcpmt:fiopen.obj
 0002:00001530       ??_C@_15JJPIMNBO@?$AAr?$AAb?$AA?$AA@ 0042b530     libcpmt:fiopen.obj
 0002:00001538       ??_C@_15MJDFFMKN@?$AAw?$AAb?$AA?$AA@ 0042b538     libcpmt:fiopen.obj
 0002:00001540       ??_C@_15BMLKLNCL@?$AAa?$AAb?$AA?$AA@ 0042b540     libcpmt:fiopen.obj
 0002:00001548       ??_C@_15HPOENKKJ@?$AAr?$AA?$CL?$AA?$AA@ 0042b548     libcpmt:fiopen.obj
 0002:00001550       ??_C@_15CPCJELBK@?$AAw?$AA?$CL?$AA?$AA@ 0042b550     libcpmt:fiopen.obj
 0002:00001558       ??_C@_15PKKGKKJM@?$AAa?$AA?$CL?$AA?$AA@ 0042b558     libcpmt:fiopen.obj
 0002:00001560       ??_C@_17IIOMHMAG@?$AAr?$AA?$CL?$AAb?$AA?$AA@ 0042b560     libcpmt:fiopen.obj
 0002:00001568       ??_C@_17MAAMHCGC@?$AAw?$AA?$CL?$AAb?$AA?$AA@ 0042b568     libcpmt:fiopen.obj
 0002:00001570       ??_C@_17HKNIEKMO@?$AAa?$AA?$CL?$AAb?$AA?$AA@ 0042b570     libcpmt:fiopen.obj
 0002:00001578       ?valid@?1???$_Xfiopen@_W@std@@YAPAU_iobuf@@PB_WHH@Z@4QBHB 0042b578     libcpmt:fiopen.obj
 0002:000015b4       ??_C@_1BK@MGMFAEKH@?$AAk?$AAe?$AAr?$AAn?$AAe?$AAl?$AA3?$AA2?$AA?4?$AAd?$AAl?$AAl?$AA?$AA@ 0042b5b4     libcpmt:winapisupp.obj
 0002:000015d0       ??_C@_08KNHFBNJ@FlsAlloc?$AA@ 0042b5d0     libcpmt:winapisupp.obj
 0002:000015dc       ??_C@_07PEJMOBNF@FlsFree?$AA@ 0042b5dc     libcpmt:winapisupp.obj
 0002:000015e4       ??_C@_0M@GDNOONDI@FlsGetValue?$AA@ 0042b5e4     libcpmt:winapisupp.obj
 0002:000015f0       ??_C@_0M@JCPCPOEF@FlsSetValue?$AA@ 0042b5f0     libcpmt:winapisupp.obj
 0002:000015fc       ??_C@_0BM@HCFOFFN@InitializeCriticalSectionEx?$AA@ 0042b5fc     libcpmt:winapisupp.obj
 0002:00001618       ??_C@_0BE@GPLMMCMH@InitOnceExecuteOnce?$AA@ 0042b618     libcpmt:winapisupp.obj
 0002:0000162c       ??_C@_0P@DLHPPCNH@CreateEventExW?$AA@ 0042b62c     libcpmt:winapisupp.obj
 0002:0000163c       ??_C@_0BB@MEFPJLHN@CreateSemaphoreW?$AA@ 0042b63c     libcpmt:winapisupp.obj
 0002:00001650       ??_C@_0BD@KIEEOEEH@CreateSemaphoreExW?$AA@ 0042b650     libcpmt:winapisupp.obj
 0002:00001664       ??_C@_0BG@OGFAJCKC@CreateThreadpoolTimer?$AA@ 0042b664     libcpmt:winapisupp.obj
 0002:0000167c       ??_C@_0BD@LPLEMMDI@SetThreadpoolTimer?$AA@ 0042b67c     libcpmt:winapisupp.obj
 0002:00001690       ??_C@_0CA@FMNJENH@WaitForThreadpoolTimerCallbacks?$AA@ 0042b690     libcpmt:winapisupp.obj
 0002:000016b0       ??_C@_0BF@DCFCCNOC@CloseThreadpoolTimer?$AA@ 0042b6b0     libcpmt:winapisupp.obj
 0002:000016c8       ??_C@_0BF@FLABGKKM@CreateThreadpoolWait?$AA@ 0042b6c8     libcpmt:winapisupp.obj
 0002:000016e0       ??_C@_0BC@MGCOHNA@SetThreadpoolWait?$AA@ 0042b6e0     libcpmt:winapisupp.obj
 0002:000016f4       ??_C@_0BE@OCIOMIMP@CloseThreadpoolWait?$AA@ 0042b6f4     libcpmt:winapisupp.obj
 0002:00001708       ??_C@_0BJ@LKGHFHBO@FlushProcessWriteBuffers?$AA@ 0042b708     libcpmt:winapisupp.obj
 0002:00001724       ??_C@_0BP@KALKKPMO@FreeLibraryWhenCallbackReturns?$AA@ 0042b724     libcpmt:winapisupp.obj
 0002:00001744       ??_C@_0BK@DFNBACLA@GetCurrentProcessorNumber?$AA@ 0042b744     libcpmt:winapisupp.obj
 0002:00001760       ??_C@_0BE@FKKLLFLM@CreateSymbolicLinkW?$AA@ 0042b760     libcpmt:winapisupp.obj
 0002:00001774       ??_C@_0BE@JOGNEJCI@GetCurrentPackageId?$AA@ 0042b774     libcpmt:winapisupp.obj
 0002:00001788       ??_C@_0P@CDHHOHKP@GetTickCount64?$AA@ 0042b788     libcpmt:winapisupp.obj
 0002:00001798       ??_C@_0BN@NEEHBBPO@GetFileInformationByHandleEx?$AA@ 0042b798     libcpmt:winapisupp.obj
 0002:000017b8       ??_C@_0BL@KBBHGKCM@SetFileInformationByHandle?$AA@ 0042b7b8     libcpmt:winapisupp.obj
 0002:000017d4       ??_C@_0BP@FPNJPEJC@GetSystemTimePreciseAsFileTime?$AA@ 0042b7d4     libcpmt:winapisupp.obj
 0002:000017f4       ??_C@_0BM@HLJJNPAH@InitializeConditionVariable?$AA@ 0042b7f4     libcpmt:winapisupp.obj
 0002:00001810       ??_C@_0BG@BFNILBLN@WakeConditionVariable?$AA@ 0042b810     libcpmt:winapisupp.obj
 0002:00001828       ??_C@_0BJ@PGPPEPCC@WakeAllConditionVariable?$AA@ 0042b828     libcpmt:winapisupp.obj
 0002:00001844       ??_C@_0BJ@JEBJOJFJ@SleepConditionVariableCS?$AA@ 0042b844     libcpmt:winapisupp.obj
 0002:00001860       ??_C@_0BC@MMLHEBPB@InitializeSRWLock?$AA@ 0042b860     libcpmt:winapisupp.obj
 0002:00001874       ??_C@_0BI@OMNLIJDB@AcquireSRWLockExclusive?$AA@ 0042b874     libcpmt:winapisupp.obj
 0002:0000188c       ??_C@_0BL@OGHFEMNA@TryAcquireSRWLockExclusive?$AA@ 0042b88c     libcpmt:winapisupp.obj
 0002:000018a8       ??_C@_0BI@HMIEPCNJ@ReleaseSRWLockExclusive?$AA@ 0042b8a8     libcpmt:winapisupp.obj
 0002:000018c0       ??_C@_0BK@LGACAGIC@SleepConditionVariableSRW?$AA@ 0042b8c0     libcpmt:winapisupp.obj
 0002:000018dc       ??_C@_0BF@GGPHFPJA@CreateThreadpoolWork?$AA@ 0042b8dc     libcpmt:winapisupp.obj
 0002:000018f4       ??_C@_0BF@NHDAIMMO@SubmitThreadpoolWork?$AA@ 0042b8f4     libcpmt:winapisupp.obj
 0002:0000190c       ??_C@_0BE@NPHIPNPD@CloseThreadpoolWork?$AA@ 0042b90c     libcpmt:winapisupp.obj
 0002:00001920       ??_C@_0BA@IHGNDAEB@CompareStringEx?$AA@ 0042b920     libcpmt:winapisupp.obj
 0002:00001930       ??_C@_0BA@ONOKGCMP@GetLocaleInfoEx?$AA@ 0042b930     libcpmt:winapisupp.obj
 0002:00001940       ??_C@_0O@KKBNKAPF@LCMapStringEx?$AA@ 0042b940     libcpmt:winapisupp.obj
 0002:00002790       ??_C@_15EMKDOKLE@?$AAa?$AAr?$AA?$AA@ 0042c790     libcpmt:winapinls.obj
 0002:00002798       ??_C@_15KNPADPLH@?$AAb?$AAg?$AA?$AA@ 0042c798     libcpmt:winapinls.obj
 0002:000027a0       ??_C@_15EDMHLDMO@?$AAc?$AAa?$AA?$AA@ 0042c7a0     libcpmt:winapinls.obj
 0002:000027a8       ??_C@_1O@BPEAJADD@?$AAz?$AAh?$AA?9?$AAC?$AAH?$AAS?$AA?$AA@ 0042c7a8     libcpmt:winapinls.obj
 0002:000027b8       ??_C@_15LJNHCMNK@?$AAc?$AAs?$AA?$AA@ 0042c7b8     libcpmt:winapinls.obj
 0002:000027c0       ??_C@_15FOMCIDHG@?$AAd?$AAa?$AA?$AA@ 0042c7c0     libcpmt:winapinls.obj
 0002:000027c8       ??_C@_15NBKABECB@?$AAd?$AAe?$AA?$AA@ 0042c7c8     libcpmt:winapinls.obj
 0002:000027d0       ??_C@_15GHPEIIAO@?$AAe?$AAl?$AA?$AA@ 0042c7d0     libcpmt:winapinls.obj
 0002:000027d8       ??_C@_15MNPNEAIF@?$AAe?$AAn?$AA?$AA@ 0042c7d8     libcpmt:winapinls.obj
 0002:000027e0       ??_C@_15GPIOMPMH@?$AAe?$AAs?$AA?$AA@ 0042c7e0     libcpmt:winapinls.obj
 0002:000027e8       ??_C@_15NGLOAKJC@?$AAf?$AAi?$AA?$AA@ 0042c7e8     libcpmt:winapinls.obj
 0002:000027f0       ??_C@_15FBKGNKAM@?$AAf?$AAr?$AA?$AA@ 0042c7f0     libcpmt:winapinls.obj
 0002:000027f8       ??_C@_15KGGCNEFK@?$AAh?$AAe?$AA?$AA@ 0042c7f8     libcpmt:winapinls.obj
 0002:00002800       ??_C@_15PGHLIDMF@?$AAh?$AAu?$AA?$AA@ 0042c800     libcpmt:winapinls.obj
 0002:00002808       ??_C@_15BIEMAPLM@?$AAi?$AAs?$AA?$AA@ 0042c808     libcpmt:winapinls.obj
 0002:00002810       ??_C@_15IFJLDHAF@?$AAi?$AAt?$AA?$AA@ 0042c810     libcpmt:winapinls.obj
 0002:00002818       ??_C@_15GEMIOCAG@?$AAj?$AAa?$AA?$AA@ 0042c818     libcpmt:winapinls.obj
 0002:00002820       ??_C@_15EPELEGJA@?$AAk?$AAo?$AA?$AA@ 0042c820     libcpmt:winapinls.obj
 0002:00002828       ??_C@_15NDDHIMN@?$AAn?$AAl?$AA?$AA@ 0042c828     libcpmt:winapinls.obj
 0002:00002830       ??_C@_15BPIGNHCD@?$AAn?$AAo?$AA?$AA@ 0042c830     libcpmt:winapinls.obj
 0002:00002838       ??_C@_15DEOPBLCG@?$AAp?$AAl?$AA?$AA@ 0042c838     libcpmt:winapinls.obj
 0002:00002840       ??_C@_15KBECGEFG@?$AAp?$AAt?$AA?$AA@ 0042c840     libcpmt:winapinls.obj
 0002:00002848       ??_C@_15GLJCBFMD@?$AAr?$AAo?$AA?$AA@ 0042c848     libcpmt:winapinls.obj
 0002:00002850       ??_C@_15FEDGKCDI@?$AAr?$AAu?$AA?$AA@ 0042c850     libcpmt:winapinls.obj
 0002:00002858       ??_C@_15GLKMLLHM@?$AAh?$AAr?$AA?$AA@ 0042c858     libcpmt:winapinls.obj
 0002:00002860       ??_C@_15CPKMFBDB@?$AAs?$AAk?$AA?$AA@ 0042c860     libcpmt:winapinls.obj
 0002:00002868       ??_C@_15BAAIOGMK@?$AAs?$AAq?$AA?$AA@ 0042c868     libcpmt:winapinls.obj
 0002:00002870       ??_C@_15INNPNOHD@?$AAs?$AAv?$AA?$AA@ 0042c870     libcpmt:winapinls.obj
 0002:00002878       ??_C@_15CABMMOGH@?$AAt?$AAh?$AA?$AA@ 0042c878     libcpmt:winapinls.obj
 0002:00002880       ??_C@_15BPLIHJJM@?$AAt?$AAr?$AA?$AA@ 0042c880     libcpmt:winapinls.obj
 0002:00002888       ??_C@_15NEOEKKDJ@?$AAu?$AAr?$AA?$AA@ 0042c888     libcpmt:winapinls.obj
 0002:00002890       ??_C@_15NFICGAJK@?$AAi?$AAd?$AA?$AA@ 0042c890     libcpmt:winapinls.obj
 0002:00002898       ??_C@_15PJPFLCCM@?$AAu?$AAk?$AA?$AA@ 0042c898     libcpmt:winapinls.obj
 0002:000028a0       ??_C@_15HPJPHDM@?$AAb?$AAe?$AA?$AA@ 0042c8a0     libcpmt:winapinls.obj
 0002:000028a8       ??_C@_15LCHLGJII@?$AAs?$AAl?$AA?$AA@ 0042c8a8     libcpmt:winapinls.obj
 0002:000028b0       ??_C@_15PCFJPHHO@?$AAe?$AAt?$AA?$AA@ 0042c8b0     libcpmt:winapinls.obj
 0002:000028b8       ??_C@_15HPFPGODN@?$AAl?$AAv?$AA?$AA@ 0042c8b8     libcpmt:winapinls.obj
 0002:000028c0       ??_C@_15NFFGKGLG@?$AAl?$AAt?$AA?$AA@ 0042c8c0     libcpmt:winapinls.obj
 0002:000028c8       ??_C@_15BDAKCCHN@?$AAf?$AAa?$AA?$AA@ 0042c8c8     libcpmt:winapinls.obj
 0002:000028d0       ??_C@_15NFGIAIAJ@?$AAv?$AAi?$AA?$AA@ 0042c8d0     libcpmt:winapinls.obj
 0002:000028d8       ??_C@_15LMKNDMHN@?$AAh?$AAy?$AA?$AA@ 0042c8d8     libcpmt:winapinls.obj
 0002:000028e0       ??_C@_15IJBHMCFL@?$AAa?$AAz?$AA?$AA@ 0042c8e0     libcpmt:winapinls.obj
 0002:000028e8       ??_C@_15EKOFJABL@?$AAe?$AAu?$AA?$AA@ 0042c8e8     libcpmt:winapinls.obj
 0002:000028f0       ??_C@_15BGHADCNK@?$AAm?$AAk?$AA?$AA@ 0042c8f0     libcpmt:winapinls.obj
 0002:000028f8       ??_C@_15JDNICKHM@?$AAa?$AAf?$AA?$AA@ 0042c8f8     libcpmt:winapinls.obj
 0002:00002900       ??_C@_15KPJEDBKD@?$AAk?$AAa?$AA?$AA@ 0042c900     libcpmt:winapinls.obj
 0002:00002908       ??_C@_15PDNFFFEO@?$AAf?$AAo?$AA?$AA@ 0042c908     libcpmt:winapinls.obj
 0002:00002910       ??_C@_15OMLEGLOC@?$AAh?$AAi?$AA?$AA@ 0042c910     libcpmt:winapinls.obj
 0002:00002918       ??_C@_15IDNNENKK@?$AAm?$AAs?$AA?$AA@ 0042c918     libcpmt:winapinls.obj
 0002:00002920       ??_C@_15MACJNBMH@?$AAk?$AAk?$AA?$AA@ 0042c920     libcpmt:winapinls.obj
 0002:00002928       ??_C@_15DKDJEOND@?$AAk?$AAy?$AA?$AA@ 0042c928     libcpmt:winapinls.obj
 0002:00002930       ??_C@_15DFGDLJBG@?$AAs?$AAw?$AA?$AA@ 0042c930     libcpmt:winapinls.obj
 0002:00002938       ??_C@_15BBFAICNG@?$AAu?$AAz?$AA?$AA@ 0042c938     libcpmt:winapinls.obj
 0002:00002940       ??_C@_15DKNDCGEA@?$AAt?$AAt?$AA?$AA@ 0042c940     libcpmt:winapinls.obj
 0002:00002948       ??_C@_15MGIFMDPL@?$AAp?$AAa?$AA?$AA@ 0042c948     libcpmt:winapinls.obj
 0002:00002950       ??_C@_15HCNDBBA@?$AAg?$AAu?$AA?$AA@ 0042c950     libcpmt:winapinls.obj
 0002:00002958       ??_C@_15FNBEIBON@?$AAt?$AAa?$AA?$AA@ 0042c958     libcpmt:winapinls.obj
 0002:00002960       ??_C@_15NCHGBGLK@?$AAt?$AAe?$AA?$AA@ 0042c960     libcpmt:winapinls.obj
 0002:00002968       ??_C@_15PHPHCBPF@?$AAk?$AAn?$AA?$AA@ 0042c968     libcpmt:winapinls.obj
 0002:00002970       ??_C@_15DLGBCKMP@?$AAm?$AAr?$AA?$AA@ 0042c970     libcpmt:winapinls.obj
 0002:00002978       ??_C@_15EABBLBFF@?$AAs?$AAa?$AA?$AA@ 0042c978     libcpmt:winapinls.obj
 0002:00002980       ??_C@_15CBKOMCOI@?$AAm?$AAn?$AA?$AA@ 0042c980     libcpmt:winapinls.obj
 0002:00002988       ??_C@_15CKDMCJAF@?$AAg?$AAl?$AA?$AA@ 0042c988     libcpmt:winapinls.obj
 0002:00002990       ??_C@_17CNJFBPG@?$AAk?$AAo?$AAk?$AA?$AA@ 0042c990     libcpmt:winapinls.obj
 0002:00002998       ??_C@_17FFBJICPL@?$AAs?$AAy?$AAr?$AA?$AA@ 0042c998     libcpmt:winapinls.obj
 0002:000029a0       ??_C@_17KPNDCPAF@?$AAd?$AAi?$AAv?$AA?$AA@ 0042c9a0     libcpmt:winapinls.obj
 0002:000029a8       ??_C@_11LOCGONAA@?$AA?$AA@ 0042c9a8     libcpmt:winapinls.obj
 0002:000029ac       ??_C@_1M@OKAHONE@?$AAa?$AAr?$AA?9?$AAS?$AAA?$AA?$AA@ 0042c9ac     libcpmt:winapinls.obj
 0002:000029b8       ??_C@_1M@FFFIGIGK@?$AAb?$AAg?$AA?9?$AAB?$AAG?$AA?$AA@ 0042c9b8     libcpmt:winapinls.obj
 0002:000029c4       ??_C@_1M@BJNKEDC@?$AAc?$AAa?$AA?9?$AAE?$AAS?$AA?$AA@ 0042c9c4     libcpmt:winapinls.obj
 0002:000029d0       ??_C@_1M@CLNBBOPM@?$AAz?$AAh?$AA?9?$AAT?$AAW?$AA?$AA@ 0042c9d0     libcpmt:winapinls.obj
 0002:000029dc       ??_C@_1M@IJJHFJHA@?$AAc?$AAs?$AA?9?$AAC?$AAZ?$AA?$AA@ 0042c9dc     libcpmt:winapinls.obj
 0002:000029e8       ??_C@_1M@CLPEOBGI@?$AAd?$AAa?$AA?9?$AAD?$AAK?$AA?$AA@ 0042c9e8     libcpmt:winapinls.obj
 0002:000029f4       ??_C@_1M@MCMADGCB@?$AAd?$AAe?$AA?9?$AAD?$AAE?$AA?$AA@ 0042c9f4     libcpmt:winapinls.obj
 0002:00002a00       ??_C@_1M@OOCKEMAM@?$AAe?$AAl?$AA?9?$AAG?$AAR?$AA?$AA@ 0042ca00     libcpmt:winapinls.obj
 0002:00002a0c       ??_C@_1M@BMHNFIME@?$AAe?$AAn?$AA?9?$AAU?$AAS?$AA?$AA@ 0042ca0c     libcpmt:winapinls.obj
 0002:00002a18       ??_C@_1M@DDNJFGID@?$AAf?$AAi?$AA?9?$AAF?$AAI?$AA?$AA@ 0042ca18     libcpmt:winapinls.obj
 0002:00002a24       ??_C@_1M@GLIPPMAC@?$AAf?$AAr?$AA?9?$AAF?$AAR?$AA?$AA@ 0042ca24     libcpmt:winapinls.obj
 0002:00002a30       ??_C@_1M@GFMCHPE@?$AAh?$AAe?$AA?9?$AAI?$AAL?$AA?$AA@ 0042ca30     libcpmt:winapinls.obj
 0002:00002a3c       ??_C@_1M@MHLPGNKM@?$AAh?$AAu?$AA?9?$AAH?$AAU?$AA?$AA@ 0042ca3c     libcpmt:winapinls.obj
 0002:00002a48       ??_C@_1M@LPDDNNPN@?$AAi?$AAs?$AA?9?$AAI?$AAS?$AA?$AA@ 0042ca48     libcpmt:winapinls.obj
 0002:00002a54       ??_C@_1M@MADIPODN@?$AAi?$AAt?$AA?9?$AAI?$AAT?$AA?$AA@ 0042ca54     libcpmt:winapinls.obj
 0002:00002a60       ??_C@_1M@HPNHIDJI@?$AAj?$AAa?$AA?9?$AAJ?$AAP?$AA?$AA@ 0042ca60     libcpmt:winapinls.obj
 0002:00002a6c       ??_C@_1M@JLOOOEGK@?$AAk?$AAo?$AA?9?$AAK?$AAR?$AA?$AA@ 0042ca6c     libcpmt:winapinls.obj
 0002:00002a78       ??_C@_1M@IHBJJGG@?$AAn?$AAl?$AA?9?$AAN?$AAL?$AA?$AA@ 0042ca78     libcpmt:winapinls.obj
 0002:00002a84       ??_C@_1M@EANAGDL@?$AAn?$AAb?$AA?9?$AAN?$AAO?$AA?$AA@ 0042ca84     libcpmt:winapinls.obj
 0002:00002a90       ??_C@_1M@NEIEMEGP@?$AAp?$AAl?$AA?9?$AAP?$AAL?$AA?$AA@ 0042ca90     libcpmt:winapinls.obj
 0002:00002a9c       ??_C@_1M@BOCFIGEP@?$AAp?$AAt?$AA?9?$AAB?$AAR?$AA?$AA@ 0042ca9c     libcpmt:winapinls.obj
 0002:00002aa8       ??_C@_1M@IMPFOPBG@?$AAr?$AAo?$AA?9?$AAR?$AAO?$AA?$AA@ 0042caa8     libcpmt:winapinls.obj
 0002:00002ab4       ??_C@_1M@IDNNEJMM@?$AAr?$AAu?$AA?9?$AAR?$AAU?$AA?$AA@ 0042cab4     libcpmt:winapinls.obj
 0002:00002ac0       ??_C@_1M@LILEEOGM@?$AAh?$AAr?$AA?9?$AAH?$AAR?$AA?$AA@ 0042cac0     libcpmt:winapinls.obj
 0002:00002acc       ??_C@_1M@FKIFEHPB@?$AAs?$AAk?$AA?9?$AAS?$AAK?$AA?$AA@ 0042cacc     libcpmt:winapinls.obj
 0002:00002ad8       ??_C@_1M@LJMAMNPJ@?$AAs?$AAq?$AA?9?$AAA?$AAL?$AA?$AA@ 0042cad8     libcpmt:winapinls.obj
 0002:00002ae4       ??_C@_1M@GIAKDKJK@?$AAs?$AAv?$AA?9?$AAS?$AAE?$AA?$AA@ 0042cae4     libcpmt:winapinls.obj
 0002:00002af0       ??_C@_1M@MKJKIKCL@?$AAt?$AAh?$AA?9?$AAT?$AAH?$AA?$AA@ 0042caf0     libcpmt:winapinls.obj
 0002:00002afc       ??_C@_1M@MFLCCMPB@?$AAt?$AAr?$AA?9?$AAT?$AAR?$AA?$AA@ 0042cafc     libcpmt:winapinls.obj
 0002:00002b08       ??_C@_1M@OIJHDKJN@?$AAu?$AAr?$AA?9?$AAP?$AAK?$AA?$AA@ 0042cb08     libcpmt:winapinls.obj
 0002:00002b14       ??_C@_1M@LHIPCIEK@?$AAi?$AAd?$AA?9?$AAI?$AAD?$AA?$AA@ 0042cb14     libcpmt:winapinls.obj
 0002:00002b20       ??_C@_1M@MFMOBGI@?$AAu?$AAk?$AA?9?$AAU?$AAA?$AA?$AA@ 0042cb20     libcpmt:winapinls.obj
 0002:00002b2c       ??_C@_1M@OBGLJIPL@?$AAb?$AAe?$AA?9?$AAB?$AAY?$AA?$AA@ 0042cb2c     libcpmt:winapinls.obj
 0002:00002b38       ??_C@_1M@BCFAJEAD@?$AAs?$AAl?$AA?9?$AAS?$AAI?$AA?$AA@ 0042cb38     libcpmt:winapinls.obj
 0002:00002b44       ??_C@_1M@FKFFEDDN@?$AAe?$AAt?$AA?9?$AAE?$AAE?$AA?$AA@ 0042cb44     libcpmt:winapinls.obj
 0002:00002b50       ??_C@_1M@KGKKAACI@?$AAl?$AAv?$AA?9?$AAL?$AAV?$AA?$AA@ 0042cb50     libcpmt:winapinls.obj
 0002:00002b5c       ??_C@_1M@IFGBIJO@?$AAl?$AAt?$AA?9?$AAL?$AAT?$AA?$AA@ 0042cb5c     libcpmt:winapinls.obj
 0002:00002b68       ??_C@_1M@FGEAHEDM@?$AAf?$AAa?$AA?9?$AAI?$AAR?$AA?$AA@ 0042cb68     libcpmt:winapinls.obj
 0002:00002b74       ??_C@_1M@KBMAIBFN@?$AAv?$AAi?$AA?9?$AAV?$AAN?$AA?$AA@ 0042cb74     libcpmt:winapinls.obj
 0002:00002b80       ??_C@_1M@GPCBKDJK@?$AAh?$AAy?$AA?9?$AAA?$AAM?$AA?$AA@ 0042cb80     libcpmt:winapinls.obj
 0002:00002b8c       ??_C@_1BG@BECMDDJB@?$AAa?$AAz?$AA?9?$AAA?$AAZ?$AA?9?$AAL?$AAa?$AAt?$AAn?$AA?$AA@ 0042cb8c     libcpmt:winapinls.obj
 0002:00002ba4       ??_C@_1M@MAOFCAEA@?$AAe?$AAu?$AA?9?$AAE?$AAS?$AA?$AA@ 0042cba4     libcpmt:winapinls.obj
 0002:00002bb0       ??_C@_1M@IGHABKPI@?$AAm?$AAk?$AA?9?$AAM?$AAK?$AA?$AA@ 0042cbb0     libcpmt:winapinls.obj
 0002:00002bbc       ??_C@_1M@IAIGNEJG@?$AAt?$AAn?$AA?9?$AAZ?$AAA?$AA?$AA@ 0042cbbc     libcpmt:winapinls.obj
 0002:00002bc8       ??_C@_1M@IIJCOJFA@?$AAx?$AAh?$AA?9?$AAZ?$AAA?$AA?$AA@ 0042cbc8     libcpmt:winapinls.obj
 0002:00002bd4       ??_C@_1M@LGPJHNJH@?$AAz?$AAu?$AA?9?$AAZ?$AAA?$AA?$AA@ 0042cbd4     libcpmt:winapinls.obj
 0002:00002be0       ??_C@_1M@HOKAOIO@?$AAa?$AAf?$AA?9?$AAZ?$AAA?$AA?$AA@ 0042cbe0     libcpmt:winapinls.obj
 0002:00002bec       ??_C@_1M@DPCLHLIE@?$AAk?$AAa?$AA?9?$AAG?$AAE?$AA?$AA@ 0042cbec     libcpmt:winapinls.obj
 0002:00002bf8       ??_C@_1M@BLKMHJBI@?$AAf?$AAo?$AA?9?$AAF?$AAO?$AA?$AA@ 0042cbf8     libcpmt:winapinls.obj
 0002:00002c04       ??_C@_1M@LGGJAPPB@?$AAh?$AAi?$AA?9?$AAI?$AAN?$AA?$AA@ 0042cc04     libcpmt:winapinls.obj
 0002:00002c10       ??_C@_1M@FIKPIHFE@?$AAm?$AAt?$AA?9?$AAM?$AAT?$AA?$AA@ 0042cc10     libcpmt:winapinls.obj
 0002:00002c1c       ??_C@_1M@HEGGPBFA@?$AAs?$AAe?$AA?9?$AAN?$AAO?$AA?$AA@ 0042cc1c     libcpmt:winapinls.obj
 0002:00002c28       ??_C@_1M@EIBJEEPA@?$AAm?$AAs?$AA?9?$AAM?$AAY?$AA?$AA@ 0042cc28     libcpmt:winapinls.obj
 0002:00002c34       ??_C@_1M@FHLBGMPP@?$AAk?$AAk?$AA?9?$AAK?$AAZ?$AA?$AA@ 0042cc34     libcpmt:winapinls.obj
 0002:00002c40       ??_C@_1M@NGJJLCGI@?$AAk?$AAy?$AA?9?$AAK?$AAG?$AA?$AA@ 0042cc40     libcpmt:winapinls.obj
 0002:00002c4c       ??_C@_1M@GIENNBFC@?$AAs?$AAw?$AA?9?$AAK?$AAE?$AA?$AA@ 0042cc4c     libcpmt:winapinls.obj
 0002:00002c58       ??_C@_1BG@NDGMJIMJ@?$AAu?$AAz?$AA?9?$AAU?$AAZ?$AA?9?$AAL?$AAa?$AAt?$AAn?$AA?$AA@ 0042cc58     libcpmt:winapinls.obj
 0002:00002c70       ??_C@_1M@IDCCIHBC@?$AAt?$AAt?$AA?9?$AAR?$AAU?$AA?$AA@ 0042cc70     libcpmt:winapinls.obj
 0002:00002c7c       ??_C@_1M@LOICPMOJ@?$AAb?$AAn?$AA?9?$AAI?$AAN?$AA?$AA@ 0042cc7c     libcpmt:winapinls.obj
 0002:00002c88       ??_C@_1M@KPKKNEAH@?$AAp?$AAa?$AA?9?$AAI?$AAN?$AA?$AA@ 0042cc88     libcpmt:winapinls.obj
 0002:00002c94       ??_C@_1M@PJGPPBOG@?$AAg?$AAu?$AA?9?$AAI?$AAN?$AA?$AA@ 0042cc94     libcpmt:winapinls.obj
 0002:00002ca0       ??_C@_1M@KMKMOPHI@?$AAt?$AAa?$AA?9?$AAI?$AAN?$AA?$AA@ 0042cca0     libcpmt:winapinls.obj
 0002:00002cac       ??_C@_1M@KFEHEPAC@?$AAt?$AAe?$AA?9?$AAI?$AAN?$AA?$AA@ 0042ccac     libcpmt:winapinls.obj
 0002:00002cb8       ??_C@_1M@CDCLMGHI@?$AAk?$AAn?$AA?9?$AAI?$AAN?$AA?$AA@ 0042ccb8     libcpmt:winapinls.obj
 0002:00002cc4       ??_C@_1M@MIODLDKF@?$AAm?$AAl?$AA?9?$AAI?$AAN?$AA?$AA@ 0042ccc4     libcpmt:winapinls.obj
 0002:00002cd0       ??_C@_1M@PBIEACPO@?$AAm?$AAr?$AA?9?$AAI?$AAN?$AA?$AA@ 0042ccd0     libcpmt:winapinls.obj
 0002:00002cdc       ??_C@_1M@NIDEAGPH@?$AAs?$AAa?$AA?9?$AAI?$AAN?$AA?$AA@ 0042ccdc     libcpmt:winapinls.obj
 0002:00002ce8       ??_C@_1M@FHIHCBIO@?$AAm?$AAn?$AA?9?$AAM?$AAN?$AA?$AA@ 0042cce8     libcpmt:winapinls.obj
 0002:00002cf4       ??_C@_1M@JAIJPENP@?$AAc?$AAy?$AA?9?$AAG?$AAB?$AA?$AA@ 0042ccf4     libcpmt:winapinls.obj
 0002:00002d00       ??_C@_1M@PHGFBEPN@?$AAg?$AAl?$AA?9?$AAE?$AAS?$AA?$AA@ 0042cd00     libcpmt:winapinls.obj
 0002:00002d0c       ??_C@_1O@KPIPDNCP@?$AAk?$AAo?$AAk?$AA?9?$AAI?$AAN?$AA?$AA@ 0042cd0c     libcpmt:winapinls.obj
 0002:00002d1c       ??_C@_1O@KNHJLDJA@?$AAs?$AAy?$AAr?$AA?9?$AAS?$AAY?$AA?$AA@ 0042cd1c     libcpmt:winapinls.obj
 0002:00002d2c       ??_C@_1O@MKEKBLAH@?$AAd?$AAi?$AAv?$AA?9?$AAM?$AAV?$AA?$AA@ 0042cd2c     libcpmt:winapinls.obj
 0002:00002d3c       ??_C@_1O@OHDCKDDF@?$AAq?$AAu?$AAz?$AA?9?$AAB?$AAO?$AA?$AA@ 0042cd3c     libcpmt:winapinls.obj
 0002:00002d4c       ??_C@_1M@LEPJNLFD@?$AAn?$AAs?$AA?9?$AAZ?$AAA?$AA?$AA@ 0042cd4c     libcpmt:winapinls.obj
 0002:00002d58       ??_C@_1M@OMLEIIJB@?$AAm?$AAi?$AA?9?$AAN?$AAZ?$AA?$AA@ 0042cd58     libcpmt:winapinls.obj
 0002:00002d64       ??_C@_1M@PMPEAILG@?$AAa?$AAr?$AA?9?$AAI?$AAQ?$AA?$AA@ 0042cd64     libcpmt:winapinls.obj
 0002:00002d70       ??_C@_1M@BIBDDEMK@?$AAz?$AAh?$AA?9?$AAC?$AAN?$AA?$AA@ 0042cd70     libcpmt:winapinls.obj
 0002:00002d7c       ??_C@_1M@CNKPNOEE@?$AAd?$AAe?$AA?9?$AAC?$AAH?$AA?$AA@ 0042cd7c     libcpmt:winapinls.obj
 0002:00002d88       ??_C@_1M@LKMGMLKO@?$AAe?$AAn?$AA?9?$AAG?$AAB?$AA?$AA@ 0042cd88     libcpmt:winapinls.obj
 0002:00002d94       ??_C@_1M@PGKJFFGL@?$AAe?$AAs?$AA?9?$AAM?$AAX?$AA?$AA@ 0042cd94     libcpmt:winapinls.obj
 0002:00002da0       ??_C@_1M@DNNANBDC@?$AAf?$AAr?$AA?9?$AAB?$AAE?$AA?$AA@ 0042cda0     libcpmt:winapinls.obj
 0002:00002dac       ??_C@_1M@HLGMDFHM@?$AAi?$AAt?$AA?9?$AAC?$AAH?$AA?$AA@ 0042cdac     libcpmt:winapinls.obj
 0002:00002db8       ??_C@_1M@CLLBGJH@?$AAn?$AAl?$AA?9?$AAB?$AAE?$AA?$AA@ 0042cdb8     libcpmt:winapinls.obj
 0002:00002dc4       ??_C@_1M@BODBOGLF@?$AAn?$AAn?$AA?9?$AAN?$AAO?$AA?$AA@ 0042cdc4     libcpmt:winapinls.obj
 0002:00002dd0       ??_C@_1M@HFFAHKAD@?$AAp?$AAt?$AA?9?$AAP?$AAT?$AA?$AA@ 0042cdd0     libcpmt:winapinls.obj
 0002:00002ddc       ??_C@_1BG@LNOAKHIE@?$AAs?$AAr?$AA?9?$AAS?$AAP?$AA?9?$AAL?$AAa?$AAt?$AAn?$AA?$AA@ 0042cddc     libcpmt:winapinls.obj
 0002:00002df4       ??_C@_1M@HBMHBGAK@?$AAs?$AAv?$AA?9?$AAF?$AAI?$AA?$AA@ 0042cdf4     libcpmt:winapinls.obj
 0002:00002e00       ??_C@_1BG@DGCJGJBE@?$AAa?$AAz?$AA?9?$AAA?$AAZ?$AA?9?$AAC?$AAy?$AAr?$AAl?$AA?$AA@ 0042ce00     libcpmt:winapinls.obj
 0002:00002e18       ??_C@_1M@KEJDAAHB@?$AAs?$AAe?$AA?9?$AAS?$AAE?$AA?$AA@ 0042ce18     libcpmt:winapinls.obj
 0002:00002e24       ??_C@_1M@HEIBJJAD@?$AAm?$AAs?$AA?9?$AAB?$AAN?$AA?$AA@ 0042ce24     libcpmt:winapinls.obj
 0002:00002e30       ??_C@_1BG@PBGJMCEM@?$AAu?$AAz?$AA?9?$AAU?$AAZ?$AA?9?$AAC?$AAy?$AAr?$AAl?$AA?$AA@ 0042ce30     libcpmt:winapinls.obj
 0002:00002e48       ??_C@_1O@LAOBCMDF@?$AAq?$AAu?$AAz?$AA?9?$AAE?$AAC?$AA?$AA@ 0042ce48     libcpmt:winapinls.obj
 0002:00002e58       ??_C@_1M@POEEMAIO@?$AAa?$AAr?$AA?9?$AAE?$AAG?$AA?$AA@ 0042ce58     libcpmt:winapinls.obj
 0002:00002e64       ??_C@_1M@EFAKDEDL@?$AAz?$AAh?$AA?9?$AAH?$AAK?$AA?$AA@ 0042ce64     libcpmt:winapinls.obj
 0002:00002e70       ??_C@_1M@HKKIJHGI@?$AAd?$AAe?$AA?9?$AAA?$AAT?$AA?$AA@ 0042ce70     libcpmt:winapinls.obj
 0002:00002e7c       ??_C@_1M@KBFBEHJF@?$AAe?$AAn?$AA?9?$AAA?$AAU?$AA?$AA@ 0042ce7c     libcpmt:winapinls.obj
 0002:00002e88       ??_C@_1M@MNPLFAAH@?$AAe?$AAs?$AA?9?$AAE?$AAS?$AA?$AA@ 0042ce88     libcpmt:winapinls.obj
 0002:00002e94       ??_C@_1M@HJOOJFMA@?$AAf?$AAr?$AA?9?$AAC?$AAA?$AA?$AA@ 0042ce94     libcpmt:winapinls.obj
 0002:00002ea0       ??_C@_1BG@JPOFPNAB@?$AAs?$AAr?$AA?9?$AAS?$AAP?$AA?9?$AAC?$AAy?$AAr?$AAl?$AA?$AA@ 0042cea0     libcpmt:winapinls.obj
 0002:00002eb8       ??_C@_1M@LNFOCMOB@?$AAs?$AAe?$AA?9?$AAF?$AAI?$AA?$AA@ 0042ceb8     libcpmt:winapinls.obj
 0002:00002ec4       ??_C@_1O@MGJBOAMB@?$AAq?$AAu?$AAz?$AA?9?$AAP?$AAE?$AA?$AA@ 0042cec4     libcpmt:winapinls.obj
 0002:00002ed4       ??_C@_1M@GJINLBOK@?$AAa?$AAr?$AA?9?$AAL?$AAY?$AA?$AA@ 0042ced4     libcpmt:winapinls.obj
 0002:00002ee0       ??_C@_1M@GGMNHJNL@?$AAz?$AAh?$AA?9?$AAS?$AAG?$AA?$AA@ 0042cee0     libcpmt:winapinls.obj
 0002:00002eec       ??_C@_1M@HOIKODND@?$AAd?$AAe?$AA?9?$AAL?$AAU?$AA?$AA@ 0042ceec     libcpmt:winapinls.obj
 0002:00002ef8       ??_C@_1M@DDOCCGFG@?$AAe?$AAn?$AA?9?$AAC?$AAA?$AA?$AA@ 0042cef8     libcpmt:winapinls.obj
 0002:00002f04       ??_C@_1M@BNOEMJLF@?$AAe?$AAs?$AA?9?$AAG?$AAT?$AA?$AA@ 0042cf04     libcpmt:winapinls.obj
 0002:00002f10       ??_C@_1M@EOGNKEK@?$AAf?$AAr?$AA?9?$AAC?$AAH?$AA?$AA@ 0042cf10     libcpmt:winapinls.obj
 0002:00002f1c       ??_C@_1M@FLIDJFHL@?$AAh?$AAr?$AA?9?$AAB?$AAA?$AA?$AA@ 0042cf1c     libcpmt:winapinls.obj
 0002:00002f28       ??_C@_1O@FMCELNAJ@?$AAs?$AAm?$AAj?$AA?9?$AAN?$AAO?$AA?$AA@ 0042cf28     libcpmt:winapinls.obj
 0002:00002f38       ??_C@_1M@JHGLJMGJ@?$AAa?$AAr?$AA?9?$AAD?$AAZ?$AA?$AA@ 0042cf38     libcpmt:winapinls.obj
 0002:00002f44       ??_C@_1M@JKKFDCNP@?$AAz?$AAh?$AA?9?$AAM?$AAO?$AA?$AA@ 0042cf44     libcpmt:winapinls.obj
 0002:00002f50       ??_C@_1M@GEEFALPE@?$AAd?$AAe?$AA?9?$AAL?$AAI?$AA?$AA@ 0042cf50     libcpmt:winapinls.obj
 0002:00002f5c       ??_C@_1M@IGEOFBG@?$AAe?$AAn?$AA?9?$AAN?$AAZ?$AA?$AA@ 0042cf5c     libcpmt:winapinls.obj
 0002:00002f68       ??_C@_1M@KDBONEHP@?$AAe?$AAs?$AA?9?$AAC?$AAR?$AA?$AA@ 0042cf68     libcpmt:winapinls.obj
 0002:00002f74       ??_C@_1M@FHMDOHNN@?$AAf?$AAr?$AA?9?$AAL?$AAU?$AA?$AA@ 0042cf74     libcpmt:winapinls.obj
 0002:00002f80       ??_C@_1BG@NFKKMAFG@?$AAb?$AAs?$AA?9?$AAB?$AAA?$AA?9?$AAL?$AAa?$AAt?$AAn?$AA?$AA@ 0042cf80     libcpmt:winapinls.obj
 0002:00002f98       ??_C@_1O@IMNBEMCI@?$AAs?$AAm?$AAj?$AA?9?$AAS?$AAE?$AA?$AA@ 0042cf98     libcpmt:winapinls.obj
 0002:00002fa8       ??_C@_1M@DHHMBNDP@?$AAa?$AAr?$AA?9?$AAM?$AAA?$AA?$AA@ 0042cfa8     libcpmt:winapinls.obj
 0002:00002fb4       ??_C@_1M@BNBLJCGH@?$AAe?$AAn?$AA?9?$AAI?$AAE?$AA?$AA@ 0042cfb4     libcpmt:winapinls.obj
 0002:00002fc0       ??_C@_1M@GEPAFMDL@?$AAe?$AAs?$AA?9?$AAP?$AAA?$AA?$AA@ 0042cfc0     libcpmt:winapinls.obj
 0002:00002fcc       ??_C@_1M@OJONDMDL@?$AAf?$AAr?$AA?9?$AAM?$AAC?$AA?$AA@ 0042cfcc     libcpmt:winapinls.obj
 0002:00002fd8       ??_C@_1BG@OBCNFJB@?$AAs?$AAr?$AA?9?$AAB?$AAA?$AA?9?$AAL?$AAa?$AAt?$AAn?$AA?$AA@ 0042cfd8     libcpmt:winapinls.obj
 0002:00002ff0       ??_C@_1O@KEMEEGPO@?$AAs?$AAm?$AAa?$AA?9?$AAN?$AAO?$AA?$AA@ 0042cff0     libcpmt:winapinls.obj
 0002:00003000       ??_C@_1M@ELMGFODK@?$AAa?$AAr?$AA?9?$AAT?$AAN?$AA?$AA@ 0042d000     libcpmt:winapinls.obj
 0002:0000300c       ??_C@_1M@BHDLHFAF@?$AAe?$AAn?$AA?9?$AAZ?$AAA?$AA?$AA@ 0042d00c     libcpmt:winapinls.obj
 0002:00003018       ??_C@_1M@BMGIGLIF@?$AAe?$AAs?$AA?9?$AAD?$AAO?$AA?$AA@ 0042d018     libcpmt:winapinls.obj
 0002:00003024       ??_C@_1BG@CMBHIPBE@?$AAs?$AAr?$AA?9?$AAB?$AAA?$AA?9?$AAC?$AAy?$AAr?$AAl?$AA?$AA@ 0042d024     libcpmt:winapinls.obj
 0002:0000303c       ??_C@_1O@HEDBLHNP@?$AAs?$AAm?$AAa?$AA?9?$AAS?$AAE?$AA?$AA@ 0042d03c     libcpmt:winapinls.obj
 0002:0000304c       ??_C@_1M@DAGCADIM@?$AAa?$AAr?$AA?9?$AAO?$AAM?$AA?$AA@ 0042d04c     libcpmt:winapinls.obj
 0002:00003058       ??_C@_1M@FODLMICG@?$AAe?$AAn?$AA?9?$AAJ?$AAM?$AA?$AA@ 0042d058     libcpmt:winapinls.obj
 0002:00003064       ??_C@_1M@DNMLCIHB@?$AAe?$AAs?$AA?9?$AAV?$AAE?$AA?$AA@ 0042d064     libcpmt:winapinls.obj
 0002:00003070       ??_C@_1O@EOKHMKJK@?$AAs?$AAm?$AAs?$AA?9?$AAF?$AAI?$AA?$AA@ 0042d070     libcpmt:winapinls.obj
 0002:00003080       ??_C@_1M@CAFJMKOF@?$AAa?$AAr?$AA?9?$AAY?$AAE?$AA?$AA@ 0042d080     libcpmt:winapinls.obj
 0002:0000308c       ??_C@_1M@CBFHIJLI@?$AAe?$AAn?$AA?9?$AAC?$AAB?$AA?$AA@ 0042d08c     libcpmt:winapinls.obj
 0002:00003098       ??_C@_1M@BGNFLDN@?$AAe?$AAs?$AA?9?$AAC?$AAO?$AA?$AA@ 0042d098     libcpmt:winapinls.obj
 0002:000030a4       ??_C@_1O@JMPHMAMC@?$AAs?$AAm?$AAn?$AA?9?$AAF?$AAI?$AA?$AA@ 0042d0a4     libcpmt:winapinls.obj
 0002:000030b4       ??_C@_1M@JLANABKE@?$AAa?$AAr?$AA?9?$AAS?$AAY?$AA?$AA@ 0042d0b4     libcpmt:winapinls.obj
 0002:000030c0       ??_C@_1M@HPKGCFGN@?$AAe?$AAn?$AA?9?$AAB?$AAZ?$AA?$AA@ 0042d0c0     libcpmt:winapinls.obj
 0002:000030cc       ??_C@_1M@OLJCMLGM@?$AAe?$AAs?$AA?9?$AAP?$AAE?$AA?$AA@ 0042d0cc     libcpmt:winapinls.obj
 0002:000030d8       ??_C@_1M@MKKGFKLE@?$AAa?$AAr?$AA?9?$AAJ?$AAO?$AA?$AA@ 0042d0d8     libcpmt:winapinls.obj
 0002:000030e4       ??_C@_1M@EKPGLDNI@?$AAe?$AAn?$AA?9?$AAT?$AAT?$AA?$AA@ 0042d0e4     libcpmt:winapinls.obj
 0002:000030f0       ??_C@_1M@OONGHFHE@?$AAe?$AAs?$AA?9?$AAA?$AAR?$AA?$AA@ 0042d0f0     libcpmt:winapinls.obj
 0002:000030fc       ??_C@_1M@OOJFGBHE@?$AAa?$AAr?$AA?9?$AAL?$AAB?$AA?$AA@ 0042d0fc     libcpmt:winapinls.obj
 0002:00003108       ??_C@_1M@GCEJHNEG@?$AAe?$AAn?$AA?9?$AAZ?$AAW?$AA?$AA@ 0042d108     libcpmt:winapinls.obj
 0002:00003114       ??_C@_1M@JNOCAHJI@?$AAe?$AAs?$AA?9?$AAE?$AAC?$AA?$AA@ 0042d114     libcpmt:winapinls.obj
 0002:00003120       ??_C@_1M@JEFHPGGB@?$AAa?$AAr?$AA?9?$AAK?$AAW?$AA?$AA@ 0042d120     libcpmt:winapinls.obj
 0002:0000312c       ??_C@_1M@MLKIBJOJ@?$AAe?$AAn?$AA?9?$AAP?$AAH?$AA?$AA@ 0042d12c     libcpmt:winapinls.obj
 0002:00003138       ??_C@_1M@BDNIPEND@?$AAe?$AAs?$AA?9?$AAC?$AAL?$AA?$AA@ 0042d138     libcpmt:winapinls.obj
 0002:00003144       ??_C@_1M@MPNMEKBD@?$AAa?$AAr?$AA?9?$AAA?$AAE?$AA?$AA@ 0042d144     libcpmt:winapinls.obj
 0002:00003150       ??_C@_1M@KBJALCPI@?$AAe?$AAs?$AA?9?$AAU?$AAY?$AA?$AA@ 0042d150     libcpmt:winapinls.obj
 0002:0000315c       ??_C@_1M@LLCCOAGA@?$AAa?$AAr?$AA?9?$AAB?$AAH?$AA?$AA@ 0042d15c     libcpmt:winapinls.obj
 0002:00003168       ??_C@_1M@PBFNCDEL@?$AAe?$AAs?$AA?9?$AAP?$AAY?$AA?$AA@ 0042d168     libcpmt:winapinls.obj
 0002:00003174       ??_C@_1M@EDGINPNP@?$AAa?$AAr?$AA?9?$AAQ?$AAA?$AA?$AA@ 0042d174     libcpmt:winapinls.obj
 0002:00003180       ??_C@_1M@MKDBIIJI@?$AAe?$AAs?$AA?9?$AAB?$AAO?$AA?$AA@ 0042d180     libcpmt:winapinls.obj
 0002:0000318c       ??_C@_1M@CPKKEBLD@?$AAe?$AAs?$AA?9?$AAS?$AAV?$AA?$AA@ 0042d18c     libcpmt:winapinls.obj
 0002:00003198       ??_C@_1M@NDBGMMJL@?$AAe?$AAs?$AA?9?$AAH?$AAN?$AA?$AA@ 0042d198     libcpmt:winapinls.obj
 0002:000031a4       ??_C@_1M@JIJIBHDP@?$AAe?$AAs?$AA?9?$AAN?$AAI?$AA?$AA@ 0042d1a4     libcpmt:winapinls.obj
 0002:000031b0       ??_C@_1M@CGFMKEEK@?$AAe?$AAs?$AA?9?$AAP?$AAR?$AA?$AA@ 0042d1b0     libcpmt:winapinls.obj
 0002:000031bc       ??_C@_1O@ICJHKIIK@?$AAz?$AAh?$AA?9?$AAC?$AAH?$AAT?$AA?$AA@ 0042d1bc     libcpmt:winapinls.obj
 0002:000031cc       ??_C@_15CLNEJCE@?$AAs?$AAr?$AA?$AA@ 0042d1cc     libcpmt:winapinls.obj
 0002:000031d4       ??_C@_1M@KAHEKEIG@?$AAa?$AAf?$AA?9?$AAz?$AAa?$AA?$AA@ 0042d1d4     libcpmt:winapinls.obj
 0002:000031e0       ??_C@_1M@GIECOABL@?$AAa?$AAr?$AA?9?$AAa?$AAe?$AA?$AA@ 0042d1e0     libcpmt:winapinls.obj
 0002:000031ec       ??_C@_1M@BMLMEKGI@?$AAa?$AAr?$AA?9?$AAb?$AAh?$AA?$AA@ 0042d1ec     libcpmt:winapinls.obj
 0002:000031f8       ??_C@_1M@DAPFDGGB@?$AAa?$AAr?$AA?9?$AAd?$AAz?$AA?$AA@ 0042d1f8     libcpmt:winapinls.obj
 0002:00003204       ??_C@_1M@FJNKGKIG@?$AAa?$AAr?$AA?9?$AAe?$AAg?$AA?$AA@ 0042d204     libcpmt:winapinls.obj
 0002:00003210       ??_C@_1M@FLGKKCLO@?$AAa?$AAr?$AA?9?$AAi?$AAq?$AA?$AA@ 0042d210     libcpmt:winapinls.obj
 0002:0000321c       ??_C@_1M@GNDIPALM@?$AAa?$AAr?$AA?9?$AAj?$AAo?$AA?$AA@ 0042d21c     libcpmt:winapinls.obj
 0002:00003228       ??_C@_1M@DDMJFMGJ@?$AAa?$AAr?$AA?9?$AAk?$AAw?$AA?$AA@ 0042d228     libcpmt:winapinls.obj
 0002:00003234       ??_C@_1M@EJALMLHM@?$AAa?$AAr?$AA?9?$AAl?$AAb?$AA?$AA@ 0042d234     libcpmt:winapinls.obj
 0002:00003240       ??_C@_1M@MOBDBLOC@?$AAa?$AAr?$AA?9?$AAl?$AAy?$AA?$AA@ 0042d240     libcpmt:winapinls.obj
 0002:0000324c       ??_C@_1M@JAOCLHDH@?$AAa?$AAr?$AA?9?$AAm?$AAa?$AA?$AA@ 0042d24c     libcpmt:winapinls.obj
 0002:00003258       ??_C@_1M@JHPMKJIE@?$AAa?$AAr?$AA?9?$AAo?$AAm?$AA?$AA@ 0042d258     libcpmt:winapinls.obj
 0002:00003264       ??_C@_1M@OEPGHFNH@?$AAa?$AAr?$AA?9?$AAq?$AAa?$AA?$AA@ 0042d264     libcpmt:winapinls.obj
 0002:00003270       ??_C@_1M@KJDONENM@?$AAa?$AAr?$AA?9?$AAs?$AAa?$AA?$AA@ 0042d270     libcpmt:winapinls.obj
 0002:0000327c       ??_C@_1M@DMJDKLKM@?$AAa?$AAr?$AA?9?$AAs?$AAy?$AA?$AA@ 0042d27c     libcpmt:winapinls.obj
 0002:00003288       ??_C@_1M@OMFIPEDC@?$AAa?$AAr?$AA?9?$AAt?$AAn?$AA?$AA@ 0042d288     libcpmt:winapinls.obj
 0002:00003294       ??_C@_1M@IHMHGAON@?$AAa?$AAr?$AA?9?$AAy?$AAe?$AA?$AA@ 0042d294     libcpmt:winapinls.obj
 0002:000032a0       ??_C@_1BG@KDCPGJGB@?$AAa?$AAz?$AA?9?$AAa?$AAz?$AA?9?$AAc?$AAy?$AAr?$AAl?$AA?$AA@ 0042d2a0     libcpmt:winapinls.obj
 0002:000032b8       ??_C@_1BG@IBCKDDOE@?$AAa?$AAz?$AA?9?$AAa?$AAz?$AA?9?$AAl?$AAa?$AAt?$AAn?$AA?$AA@ 0042d2b8     libcpmt:winapinls.obj
 0002:000032d0       ??_C@_1M@EGPFDCPD@?$AAb?$AAe?$AA?9?$AAb?$AAy?$AA?$AA@ 0042d2d0     libcpmt:winapinls.obj
 0002:000032dc       ??_C@_1M@PCMGMCGC@?$AAb?$AAg?$AA?9?$AAb?$AAg?$AA?$AA@ 0042d2dc     libcpmt:winapinls.obj
 0002:000032e8       ??_C@_1M@BJBMFGOB@?$AAb?$AAn?$AA?9?$AAi?$AAn?$AA?$AA@ 0042d2e8     libcpmt:winapinls.obj
 0002:000032f4       ??_C@_1BG@EAKMMACD@?$AAb?$AAs?$AA?9?$AAb?$AAa?$AA?9?$AAl?$AAa?$AAt?$AAn?$AA?$AA@ 0042d2f4     libcpmt:winapinls.obj
 0002:0000330c       ??_C@_1M@KGADAODK@?$AAc?$AAa?$AA?9?$AAe?$AAs?$AA?$AA@ 0042d30c     libcpmt:winapinls.obj
 0002:00003318       ??_C@_1M@COAJPDHI@?$AAc?$AAs?$AA?9?$AAc?$AAz?$AA?$AA@ 0042d318     libcpmt:winapinls.obj
 0002:00003324       ??_C@_1M@DHBHFONH@?$AAc?$AAy?$AA?9?$AAg?$AAb?$AA?$AA@ 0042d324     libcpmt:winapinls.obj
 0002:00003330       ??_C@_1M@IMGKELGA@?$AAd?$AAa?$AA?9?$AAd?$AAk?$AA?$AA@ 0042d330     libcpmt:winapinls.obj
 0002:0000333c       ??_C@_1M@NNDGDNGA@?$AAd?$AAe?$AA?9?$AAa?$AAt?$AA?$AA@ 0042d33c     libcpmt:winapinls.obj
 0002:00003348       ??_C@_1M@IKDBHEEM@?$AAd?$AAe?$AA?9?$AAc?$AAh?$AA?$AA@ 0042d348     libcpmt:winapinls.obj
 0002:00003354       ??_C@_1M@GFFOJMCJ@?$AAd?$AAe?$AA?9?$AAd?$AAe?$AA?$AA@ 0042d354     libcpmt:winapinls.obj
 0002:00003360       ??_C@_1M@MDNLKBPM@?$AAd?$AAe?$AA?9?$AAl?$AAi?$AA?$AA@ 0042d360     libcpmt:winapinls.obj
 0002:0000336c       ??_C@_1M@NJBEEJNL@?$AAd?$AAe?$AA?9?$AAl?$AAu?$AA?$AA@ 0042d36c     libcpmt:winapinls.obj
 0002:00003378       ??_C@_1O@GNNELBAP@?$AAd?$AAi?$AAv?$AA?9?$AAm?$AAv?$AA?$AA@ 0042d378     libcpmt:winapinls.obj
 0002:00003388       ??_C@_1M@EJLEOGAE@?$AAe?$AAl?$AA?9?$AAg?$AAr?$AA?$AA@ 0042d388     libcpmt:winapinls.obj
 0002:00003394       ??_C@_1M@GMPONJN@?$AAe?$AAn?$AA?9?$AAa?$AAu?$AA?$AA@ 0042d394     libcpmt:winapinls.obj
 0002:000033a0       ??_C@_1M@NIDIIPGF@?$AAe?$AAn?$AA?9?$AAb?$AAz?$AA?$AA@ 0042d3a0     libcpmt:winapinls.obj
 0002:000033ac       ??_C@_1M@JEHMIMFO@?$AAe?$AAn?$AA?9?$AAc?$AAa?$AA?$AA@ 0042d3ac     libcpmt:winapinls.obj
 0002:000033b8       ??_C@_1M@IGMJCDLA@?$AAe?$AAn?$AA?9?$AAc?$AAb?$AA?$AA@ 0042d3b8     libcpmt:winapinls.obj
 0002:000033c4       ??_C@_1M@BNFIGBKG@?$AAe?$AAn?$AA?9?$AAg?$AAb?$AA?$AA@ 0042d3c4     libcpmt:winapinls.obj
 0002:000033d0       ??_C@_1M@LKIFDIGP@?$AAe?$AAn?$AA?9?$AAi?$AAe?$AA?$AA@ 0042d3d0     libcpmt:winapinls.obj
 0002:000033dc       ??_C@_1M@PJKFGCCO@?$AAe?$AAn?$AA?9?$AAj?$AAm?$AA?$AA@ 0042d3dc     libcpmt:winapinls.obj
 0002:000033e8       ??_C@_1M@KPPKEPBO@?$AAe?$AAn?$AA?9?$AAn?$AAz?$AA?$AA@ 0042d3e8     libcpmt:winapinls.obj
 0002:000033f4       ??_C@_1M@GMDGLDOB@?$AAe?$AAn?$AA?9?$AAp?$AAh?$AA?$AA@ 0042d3f4     libcpmt:winapinls.obj
 0002:00003400       ??_C@_1M@ONGIBJNA@?$AAe?$AAn?$AA?9?$AAt?$AAt?$AA?$AA@ 0042d400     libcpmt:winapinls.obj
 0002:0000340c       ??_C@_1M@LLODPCMM@?$AAe?$AAn?$AA?9?$AAu?$AAs?$AA?$AA@ 0042d40c     libcpmt:winapinls.obj
 0002:00003418       ??_C@_1M@LAKFNPAN@?$AAe?$AAn?$AA?9?$AAz?$AAa?$AA?$AA@ 0042d418     libcpmt:winapinls.obj
 0002:00003424       ??_C@_1M@MFNHNHEO@?$AAe?$AAn?$AA?9?$AAz?$AAw?$AA?$AA@ 0042d424     libcpmt:winapinls.obj
 0002:00003430       ??_C@_1M@EJEINPHM@?$AAe?$AAs?$AA?9?$AAa?$AAr?$AA?$AA@ 0042d430     libcpmt:winapinls.obj
 0002:0000343c       ??_C@_1M@GNKPCCJA@?$AAe?$AAs?$AA?9?$AAb?$AAo?$AA?$AA@ 0042d43c     libcpmt:winapinls.obj
 0002:00003448       ??_C@_1M@LEEGFONL@?$AAe?$AAs?$AA?9?$AAc?$AAl?$AA?$AA@ 0042d448     libcpmt:winapinls.obj
 0002:00003454       ??_C@_1M@KGPDPBDF@?$AAe?$AAs?$AA?9?$AAc?$AAo?$AA?$AA@ 0042d454     libcpmt:winapinls.obj
 0002:00003460       ??_C@_1M@EIAHOHH@?$AAe?$AAs?$AA?9?$AAc?$AAr?$AA?$AA@ 0042d460     libcpmt:winapinls.obj
 0002:0000346c       ??_C@_1M@LLPGMBIN@?$AAe?$AAs?$AA?9?$AAd?$AAo?$AA?$AA@ 0042d46c     libcpmt:winapinls.obj
 0002:00003478       ??_C@_1M@DKHMKNJA@?$AAe?$AAs?$AA?9?$AAe?$AAc?$AA?$AA@ 0042d478     libcpmt:winapinls.obj
 0002:00003484       ??_C@_1M@GKGFPKAP@?$AAe?$AAs?$AA?9?$AAe?$AAs?$AA?$AA@ 0042d484     libcpmt:winapinls.obj
 0002:00003490       ??_C@_1M@LKHKGDLN@?$AAe?$AAs?$AA?9?$AAg?$AAt?$AA?$AA@ 0042d490     libcpmt:winapinls.obj
 0002:0000349c       ??_C@_1M@HEIIGGJD@?$AAe?$AAs?$AA?9?$AAh?$AAn?$AA?$AA@ 0042d49c     libcpmt:winapinls.obj
 0002:000034a8       ??_C@_1M@FBDHPPGD@?$AAe?$AAs?$AA?9?$AAm?$AAx?$AA?$AA@ 0042d4a8     libcpmt:winapinls.obj
 0002:000034b4       ??_C@_1M@DPAGLNDH@?$AAe?$AAs?$AA?9?$AAn?$AAi?$AA?$AA@ 0042d4b4     libcpmt:winapinls.obj
 0002:000034c0       ??_C@_1M@MDGOPGDD@?$AAe?$AAs?$AA?9?$AAp?$AAa?$AA?$AA@ 0042d4c0     libcpmt:winapinls.obj
 0002:000034cc       ??_C@_1M@EMAMGBGE@?$AAe?$AAs?$AA?9?$AAp?$AAe?$AA?$AA@ 0042d4cc     libcpmt:winapinls.obj
 0002:000034d8       ??_C@_1M@IBMCAOEC@?$AAe?$AAs?$AA?9?$AAp?$AAr?$AA?$AA@ 0042d4d8     libcpmt:winapinls.obj
 0002:000034e4       ??_C@_1M@FGMDIJED@?$AAe?$AAs?$AA?9?$AAp?$AAy?$AA?$AA@ 0042d4e4     libcpmt:winapinls.obj
 0002:000034f0       ??_C@_1M@IIDEOLLL@?$AAe?$AAs?$AA?9?$AAs?$AAv?$AA?$AA@ 0042d4f0     libcpmt:winapinls.obj
 0002:000034fc       ??_C@_1M@GAOBIPA@?$AAe?$AAs?$AA?9?$AAu?$AAy?$AA?$AA@ 0042d4fc     libcpmt:winapinls.obj
 0002:00003508       ??_C@_1M@JKFFICHJ@?$AAe?$AAs?$AA?9?$AAv?$AAe?$AA?$AA@ 0042d508     libcpmt:winapinls.obj
 0002:00003514       ??_C@_1M@PNMLOJDF@?$AAe?$AAt?$AA?9?$AAe?$AAe?$AA?$AA@ 0042d514     libcpmt:winapinls.obj
 0002:00003520       ??_C@_1M@GHHLIKEI@?$AAe?$AAu?$AA?9?$AAe?$AAs?$AA?$AA@ 0042d520     libcpmt:winapinls.obj
 0002:0000352c       ??_C@_1M@PBNONODE@?$AAf?$AAa?$AA?9?$AAi?$AAr?$AA?$AA@ 0042d52c     libcpmt:winapinls.obj
 0002:00003538       ??_C@_1M@JEEHPMIL@?$AAf?$AAi?$AA?9?$AAf?$AAi?$AA?$AA@ 0042d538     libcpmt:winapinls.obj
 0002:00003544       ??_C@_1M@LMDCNDBA@?$AAf?$AAo?$AA?9?$AAf?$AAo?$AA?$AA@ 0042d544     libcpmt:winapinls.obj
 0002:00003550       ??_C@_1M@JKEOHLDK@?$AAf?$AAr?$AA?9?$AAb?$AAe?$AA?$AA@ 0042d550     libcpmt:winapinls.obj
 0002:0000355c       ??_C@_1M@NOHADPMI@?$AAf?$AAr?$AA?9?$AAc?$AAa?$AA?$AA@ 0042d55c     libcpmt:winapinls.obj
 0002:00003568       ??_C@_1M@KDHIHAEC@?$AAf?$AAr?$AA?9?$AAc?$AAh?$AA?$AA@ 0042d568     libcpmt:winapinls.obj
 0002:00003574       ??_C@_1M@MMBBFGAK@?$AAf?$AAr?$AA?9?$AAf?$AAr?$AA?$AA@ 0042d574     libcpmt:winapinls.obj
 0002:00003580       ??_C@_1M@PAFNENNF@?$AAf?$AAr?$AA?9?$AAl?$AAu?$AA?$AA@ 0042d580     libcpmt:winapinls.obj
 0002:0000358c       ??_C@_1M@EOHDJGDD@?$AAf?$AAr?$AA?9?$AAm?$AAc?$AA?$AA@ 0042d58c     libcpmt:winapinls.obj
 0002:00003598       ??_C@_1M@FAPLLOPF@?$AAg?$AAl?$AA?9?$AAe?$AAs?$AA?$AA@ 0042d598     libcpmt:winapinls.obj
 0002:000035a4       ??_C@_1M@FOPBFLOO@?$AAg?$AAu?$AA?9?$AAi?$AAn?$AA?$AA@ 0042d5a4     libcpmt:winapinls.obj
 0002:000035b0       ??_C@_1M@KBMCINPM@?$AAh?$AAe?$AA?9?$AAi?$AAl?$AA?$AA@ 0042d5b0     libcpmt:winapinls.obj
 0002:000035bc       ??_C@_1M@BBPHKFPJ@?$AAh?$AAi?$AA?9?$AAi?$AAn?$AA?$AA@ 0042d5bc     libcpmt:winapinls.obj
 0002:000035c8       ??_C@_1M@PMBNDPHD@?$AAh?$AAr?$AA?9?$AAb?$AAa?$AA?$AA@ 0042d5c8     libcpmt:winapinls.obj
 0002:000035d4       ??_C@_1M@BPCKOEGE@?$AAh?$AAr?$AA?9?$AAh?$AAr?$AA?$AA@ 0042d5d4     libcpmt:winapinls.obj
 0002:000035e0       ??_C@_1M@GACBMHKE@?$AAh?$AAu?$AA?9?$AAh?$AAu?$AA?$AA@ 0042d5e0     libcpmt:winapinls.obj
 0002:000035ec       ??_C@_1M@MILPAJJC@?$AAh?$AAy?$AA?9?$AAa?$AAm?$AA?$AA@ 0042d5ec     libcpmt:winapinls.obj
 0002:000035f8       ??_C@_1M@BABBICEC@?$AAi?$AAd?$AA?9?$AAi?$AAd?$AA?$AA@ 0042d5f8     libcpmt:winapinls.obj
 0002:00003604       ??_C@_1M@BIKNHHPF@?$AAi?$AAs?$AA?9?$AAi?$AAs?$AA?$AA@ 0042d604     libcpmt:winapinls.obj
 0002:00003610       ??_C@_1M@NMPCJPHE@?$AAi?$AAt?$AA?9?$AAc?$AAh?$AA?$AA@ 0042d610     libcpmt:winapinls.obj
 0002:0000361c       ??_C@_1M@GHKGFEDF@?$AAi?$AAt?$AA?9?$AAi?$AAt?$AA?$AA@ 0042d61c     libcpmt:winapinls.obj
 0002:00003628       ??_C@_1M@NIEJCJJA@?$AAj?$AAa?$AA?9?$AAj?$AAp?$AA?$AA@ 0042d628     libcpmt:winapinls.obj
 0002:00003634       ??_C@_1M@JILFNBIM@?$AAk?$AAa?$AA?9?$AAg?$AAe?$AA?$AA@ 0042d634     libcpmt:winapinls.obj
 0002:00003640       ??_C@_1M@PACPMGPH@?$AAk?$AAk?$AA?9?$AAk?$AAz?$AA?$AA@ 0042d640     libcpmt:winapinls.obj
 0002:0000364c       ??_C@_1M@IELFGMHA@?$AAk?$AAn?$AA?9?$AAi?$AAn?$AA?$AA@ 0042d64c     libcpmt:winapinls.obj
 0002:00003658       ??_C@_1M@DMHAEOGC@?$AAk?$AAo?$AA?9?$AAk?$AAr?$AA?$AA@ 0042d658     libcpmt:winapinls.obj
 0002:00003664       ??_C@_1O@IBBJHCH@?$AAk?$AAo?$AAk?$AA?9?$AAi?$AAn?$AA?$AA@ 0042d664     libcpmt:winapinls.obj
 0002:00003674       ??_C@_1M@HBAHBIGA@?$AAk?$AAy?$AA?9?$AAk?$AAg?$AA?$AA@ 0042d674     libcpmt:winapinls.obj
 0002:00003680       ??_C@_1M@KPMILCJG@?$AAl?$AAt?$AA?9?$AAl?$AAt?$AA?$AA@ 0042d680     libcpmt:winapinls.obj
 0002:0000368c       ??_C@_1M@BDEKKCA@?$AAl?$AAv?$AA?9?$AAl?$AAv?$AA?$AA@ 0042d68c     libcpmt:winapinls.obj
 0002:00003698       ??_C@_1M@ELCKCCJJ@?$AAm?$AAi?$AA?9?$AAn?$AAz?$AA?$AA@ 0042d698     libcpmt:winapinls.obj
 0002:000036a4       ??_C@_1M@CBOOLAPA@?$AAm?$AAk?$AA?9?$AAm?$AAk?$AA?$AA@ 0042d6a4     libcpmt:winapinls.obj
 0002:000036b0       ??_C@_1M@GPHNBJKN@?$AAm?$AAl?$AA?9?$AAi?$AAn?$AA?$AA@ 0042d6b0     libcpmt:winapinls.obj
 0002:000036bc       ??_C@_1M@PABJILIG@?$AAm?$AAn?$AA?9?$AAm?$AAn?$AA?$AA@ 0042d6bc     libcpmt:winapinls.obj
 0002:000036c8       ??_C@_1M@FGBKKIPG@?$AAm?$AAr?$AA?9?$AAi?$AAn?$AA?$AA@ 0042d6c8     libcpmt:winapinls.obj
 0002:000036d4       ??_C@_1M@NDBPDDAL@?$AAm?$AAs?$AA?9?$AAb?$AAn?$AA?$AA@ 0042d6d4     libcpmt:winapinls.obj
 0002:000036e0       ??_C@_1M@OPIHOOPI@?$AAm?$AAs?$AA?9?$AAm?$AAy?$AA?$AA@ 0042d6e0     libcpmt:winapinls.obj
 0002:000036ec       ??_C@_1M@PPDBCNFM@?$AAm?$AAt?$AA?9?$AAm?$AAt?$AA?$AA@ 0042d6ec     libcpmt:winapinls.obj
 0002:000036f8       ??_C@_1M@KDJDKMDD@?$AAn?$AAb?$AA?9?$AAn?$AAo?$AA?$AA@ 0042d6f8     libcpmt:winapinls.obj
 0002:00003704       ??_C@_1M@KFCFLMJP@?$AAn?$AAl?$AA?9?$AAb?$AAe?$AA?$AA@ 0042d704     libcpmt:winapinls.obj
 0002:00003710       ??_C@_1M@KPOPDDGO@?$AAn?$AAl?$AA?9?$AAn?$AAl?$AA?$AA@ 0042d710     libcpmt:winapinls.obj
 0002:0000371c       ??_C@_1M@LJKPEMLN@?$AAn?$AAn?$AA?9?$AAn?$AAo?$AA?$AA@ 0042d71c     libcpmt:winapinls.obj
 0002:00003728       ??_C@_1M@BDGHHBFL@?$AAn?$AAs?$AA?9?$AAz?$AAa?$AA?$AA@ 0042d728     libcpmt:winapinls.obj
 0002:00003734       ??_C@_1M@IDEHOAP@?$AAp?$AAa?$AA?9?$AAi?$AAn?$AA?$AA@ 0042d734     libcpmt:winapinls.obj
 0002:00003740       ??_C@_1M@HDBKGOGH@?$AAp?$AAl?$AA?9?$AAp?$AAl?$AA?$AA@ 0042d740     libcpmt:winapinls.obj
 0002:0000374c       ??_C@_1M@LJLLCMEH@?$AAp?$AAt?$AA?9?$AAb?$AAr?$AA?$AA@ 0042d74c     libcpmt:winapinls.obj
 0002:00003758       ??_C@_1M@NCMONAAL@?$AAp?$AAt?$AA?9?$AAp?$AAt?$AA?$AA@ 0042d758     libcpmt:winapinls.obj
 0002:00003764       ??_C@_1O@EAKMAJDN@?$AAq?$AAu?$AAz?$AA?9?$AAb?$AAo?$AA?$AA@ 0042d764     libcpmt:winapinls.obj
 0002:00003774       ??_C@_1O@BHHPIGDN@?$AAq?$AAu?$AAz?$AA?9?$AAe?$AAc?$AA?$AA@ 0042d774     libcpmt:winapinls.obj
 0002:00003784       ??_C@_1O@GBAPEKMJ@?$AAq?$AAu?$AAz?$AA?9?$AAp?$AAe?$AA?$AA@ 0042d784     libcpmt:winapinls.obj
 0002:00003794       ??_C@_1M@CLGLEFBO@?$AAr?$AAo?$AA?9?$AAr?$AAo?$AA?$AA@ 0042d794     libcpmt:winapinls.obj
 0002:000037a0       ??_C@_1M@CEEDODME@?$AAr?$AAu?$AA?9?$AAr?$AAu?$AA?$AA@ 0042d7a0     libcpmt:winapinls.obj
 0002:000037ac       ??_C@_1M@HPKKKMPP@?$AAs?$AAa?$AA?9?$AAi?$AAn?$AA?$AA@ 0042d7ac     libcpmt:winapinls.obj
 0002:000037b8       ??_C@_1M@BKMAIGOJ@?$AAs?$AAe?$AA?9?$AAf?$AAi?$AA?$AA@ 0042d7b8     libcpmt:winapinls.obj
 0002:000037c4       ??_C@_1M@NDPIFLFI@?$AAs?$AAe?$AA?9?$AAn?$AAo?$AA?$AA@ 0042d7c4     libcpmt:winapinls.obj
 0002:000037d0       ??_C@_1M@DANKKHJ@?$AAs?$AAe?$AA?9?$AAs?$AAe?$AA?$AA@ 0042d7d0     libcpmt:winapinls.obj
 0002:000037dc       ??_C@_1M@PNBLONPJ@?$AAs?$AAk?$AA?9?$AAs?$AAk?$AA?$AA@ 0042d7dc     libcpmt:winapinls.obj
 0002:000037e8       ??_C@_1M@LFMODOAL@?$AAs?$AAl?$AA?9?$AAs?$AAi?$AA?$AA@ 0042d7e8     libcpmt:winapinls.obj
 0002:000037f4       ??_C@_1O@DFKOMPG@?$AAs?$AAm?$AAa?$AA?9?$AAn?$AAo?$AA?$AA@ 0042d7f4     libcpmt:winapinls.obj
 0002:00003804       ??_C@_1O@NDKPBNNH@?$AAs?$AAm?$AAa?$AA?9?$AAs?$AAe?$AA?$AA@ 0042d804     libcpmt:winapinls.obj
 0002:00003814       ??_C@_1O@PLLKBHAB@?$AAs?$AAm?$AAj?$AA?9?$AAn?$AAo?$AA?$AA@ 0042d814     libcpmt:winapinls.obj
 0002:00003824       ??_C@_1O@CLEPOGCA@?$AAs?$AAm?$AAj?$AA?9?$AAs?$AAe?$AA?$AA@ 0042d824     libcpmt:winapinls.obj
 0002:00003834       ??_C@_1O@DLGJGKMK@?$AAs?$AAm?$AAn?$AA?9?$AAf?$AAi?$AA?$AA@ 0042d834     libcpmt:winapinls.obj
 0002:00003844       ??_C@_1O@OJDJGAJC@?$AAs?$AAm?$AAs?$AA?9?$AAf?$AAi?$AA?$AA@ 0042d844     libcpmt:winapinls.obj
 0002:00003854       ??_C@_1M@BOFOGHPB@?$AAs?$AAq?$AA?9?$AAa?$AAl?$AA?$AA@ 0042d854     libcpmt:winapinls.obj
 0002:00003860       ??_C@_1BG@LJBBIPGB@?$AAs?$AAr?$AA?9?$AAb?$AAa?$AA?9?$AAc?$AAy?$AAr?$AAl?$AA?$AA@ 0042d860     libcpmt:winapinls.obj
 0002:00003878       ??_C@_1BG@JLBENFOE@?$AAs?$AAr?$AA?9?$AAb?$AAa?$AA?9?$AAl?$AAa?$AAt?$AAn?$AA?$AA@ 0042d878     libcpmt:winapinls.obj
 0002:00003890       ??_C@_1BG@KODPNHE@?$AAs?$AAr?$AA?9?$AAs?$AAp?$AA?9?$AAc?$AAy?$AAr?$AAl?$AA?$AA@ 0042d890     libcpmt:winapinls.obj
 0002:000038a8       ??_C@_1BG@CIOGKHPB@?$AAs?$AAr?$AA?9?$AAs?$AAp?$AA?9?$AAl?$AAa?$AAt?$AAn?$AA?$AA@ 0042d8a8     libcpmt:winapinls.obj
 0002:000038c0       ??_C@_1M@NGFJLMAC@?$AAs?$AAv?$AA?9?$AAf?$AAi?$AA?$AA@ 0042d8c0     libcpmt:winapinls.obj
 0002:000038cc       ??_C@_1M@MPJEJAJC@?$AAs?$AAv?$AA?9?$AAs?$AAe?$AA?$AA@ 0042d8cc     libcpmt:winapinls.obj
 0002:000038d8       ??_C@_1M@MPNDHLFK@?$AAs?$AAw?$AA?9?$AAk?$AAe?$AA?$AA@ 0042d8d8     libcpmt:winapinls.obj
 0002:000038e4       ??_C@_1O@KOHBJJI@?$AAs?$AAy?$AAr?$AA?9?$AAs?$AAy?$AA?$AA@ 0042d8e4     libcpmt:winapinls.obj
 0002:000038f4       ??_C@_1M@LDCEFHA@?$AAt?$AAa?$AA?9?$AAi?$AAn?$AA?$AA@ 0042d8f4     libcpmt:winapinls.obj
 0002:00003900       ??_C@_1M@CNJOFAK@?$AAt?$AAe?$AA?9?$AAi?$AAn?$AA?$AA@ 0042d900     libcpmt:winapinls.obj
 0002:0000390c       ??_C@_1M@GNAECACD@?$AAt?$AAh?$AA?9?$AAt?$AAh?$AA?$AA@ 0042d90c     libcpmt:winapinls.obj
 0002:00003918       ??_C@_1M@CHBIHOJO@?$AAt?$AAn?$AA?9?$AAz?$AAa?$AA?$AA@ 0042d918     libcpmt:winapinls.obj
 0002:00003924       ??_C@_1M@GCCMIGPJ@?$AAt?$AAr?$AA?9?$AAt?$AAr?$AA?$AA@ 0042d924     libcpmt:winapinls.obj
 0002:00003930       ??_C@_1M@CELMCNBK@?$AAt?$AAt?$AA?9?$AAr?$AAu?$AA?$AA@ 0042d930     libcpmt:winapinls.obj
 0002:0000393c       ??_C@_1M@KLMCELGA@?$AAu?$AAk?$AA?9?$AAu?$AAa?$AA?$AA@ 0042d93c     libcpmt:winapinls.obj
 0002:00003948       ??_C@_1M@EPAJJAJF@?$AAu?$AAr?$AA?9?$AAp?$AAk?$AA?$AA@ 0042d948     libcpmt:winapinls.obj
 0002:00003954       ??_C@_1BG@GEGPMCDJ@?$AAu?$AAz?$AA?9?$AAu?$AAz?$AA?9?$AAc?$AAy?$AAr?$AAl?$AA?$AA@ 0042d954     libcpmt:winapinls.obj
 0002:0000396c       ??_C@_1BG@EGGKJILM@?$AAu?$AAz?$AA?9?$AAu?$AAz?$AA?9?$AAl?$AAa?$AAt?$AAn?$AA?$AA@ 0042d96c     libcpmt:winapinls.obj
 0002:00003984       ??_C@_1M@GFOCLFF@?$AAv?$AAi?$AA?9?$AAv?$AAn?$AA?$AA@ 0042d984     libcpmt:winapinls.obj
 0002:00003990       ??_C@_1M@CPAMEDFI@?$AAx?$AAh?$AA?9?$AAz?$AAa?$AA?$AA@ 0042d990     libcpmt:winapinls.obj
 0002:0000399c       ??_C@_1O@EBKIFIGN@?$AAz?$AAh?$AA?9?$AAc?$AAh?$AAs?$AA?$AA@ 0042d99c     libcpmt:winapinls.obj
 0002:000039ac       ??_C@_1O@NMHPGANE@?$AAz?$AAh?$AA?9?$AAc?$AAh?$AAt?$AA?$AA@ 0042d9ac     libcpmt:winapinls.obj
 0002:000039bc       ??_C@_1M@LPINJOMC@?$AAz?$AAh?$AA?9?$AAc?$AAn?$AA?$AA@ 0042d9bc     libcpmt:winapinls.obj
 0002:000039c8       ??_C@_1M@OCJEJODD@?$AAz?$AAh?$AA?9?$AAh?$AAk?$AA?$AA@ 0042d9c8     libcpmt:winapinls.obj
 0002:000039d4       ??_C@_1M@DNDLJINH@?$AAz?$AAh?$AA?9?$AAm?$AAo?$AA?$AA@ 0042d9d4     libcpmt:winapinls.obj
 0002:000039e0       ??_C@_1M@MBFDNDND@?$AAz?$AAh?$AA?9?$AAs?$AAg?$AA?$AA@ 0042d9e0     libcpmt:winapinls.obj
 0002:000039ec       ??_C@_1M@IMEPLEPE@?$AAz?$AAh?$AA?9?$AAt?$AAw?$AA?$AA@ 0042d9ec     libcpmt:winapinls.obj
 0002:000039f8       ??_C@_1M@BBGHNHJP@?$AAz?$AAu?$AA?9?$AAz?$AAa?$AA?$AA@ 0042d9f8     libcpmt:winapinls.obj
 0002:00003a04       ??_C@_01JOAMLHOP@?9?$AA@   0042da04     libcpmt:wlocale.obj
 0002:00003aac       ??_7type_info@@6B@         0042daac     LIBCMT:std_type_info_static.obj
 0002:00003ab4       ??_7bad_array_new_length@std@@6B@ 0042dab4     LIBCMT:throw_bad_alloc.obj
 0002:00003abc       ??_C@_0BF@KINCDENJ@bad?5array?5new?5length?$AA@ 0042dabc     LIBCMT:throw_bad_alloc.obj
 0002:00003adc       __pDestructExceptionObject 0042dadc     libvcruntime:frame.obj
 0002:00003ae4       ??_7bad_exception@std@@6B@ 0042dae4     libvcruntime:frame.obj
 0002:00003aec       ??_C@_0O@DPKOEFFH@bad?5exception?$AA@ 0042daec     libvcruntime:frame.obj
 0002:00003b2c       ??_C@_1BC@DNHGCMLG@?$AAa?$AAd?$AAv?$AAa?$AAp?$AAi?$AA3?$AA2?$AA?$AA@ 0042db2c     libvcruntime:winapi_downlevel.obj
 0002:00003b40       ??_C@_1DM@KHCHBNEB@?$AAa?$AAp?$AAi?$AA?9?$AAm?$AAs?$AA?9?$AAw?$AAi?$AAn?$AA?9?$AAc?$AAo?$AAr?$AAe?$AA?9?$AAf?$AAi?$AAb?$AAe?$AAr?$AAs?$AA?9?$AAl?$AA1?$AA?9?$AA1?$AA?9?$AA1?$AA?$AA@ 0042db40     libvcruntime:winapi_downlevel.obj
 0002:00003b7c       ??_C@_1DK@LPPGFMPP@?$AAa?$AAp?$AAi?$AA?9?$AAm?$AAs?$AA?9?$AAw?$AAi?$AAn?$AA?9?$AAc?$AAo?$AAr?$AAe?$AA?9?$AAs?$AAy?$AAn?$AAc?$AAh?$AA?9?$AAl?$AA1?$AA?9?$AA2?$AA?9?$AA0?$AA?$AA@ 0042db7c     libvcruntime:winapi_downlevel.obj
 0002:00003bb8       ??_C@_1BC@GDMECMAK@?$AAk?$AAe?$AAr?$AAn?$AAe?$AAl?$AA3?$AA2?$AA?$AA@ 0042dbb8     libvcruntime:winapi_downlevel.obj
 0002:00003d88       ??_C@_08EHJDFFNH@__based?$CI?$AA@ 0042dd88     libvcruntime:undname.obj
 0002:00003d94       ??_C@_07KOLFKCDI@__cdecl?$AA@ 0042dd94     libvcruntime:undname.obj
 0002:00003d9c       ??_C@_08GHMPAG@__pascal?$AA@ 0042dd9c     libvcruntime:undname.obj
 0002:00003da8       ??_C@_09IFJBGAPI@__stdcall?$AA@ 0042dda8     libvcruntime:undname.obj
 0002:00003db4       ??_C@_0L@NPHFGOKO@__thiscall?$AA@ 0042ddb4     libvcruntime:undname.obj
 0002:00003dc0       ??_C@_0L@JMKHOMEK@__fastcall?$AA@ 0042ddc0     libvcruntime:undname.obj
 0002:00003dcc       ??_C@_0N@BCKKPABJ@__vectorcall?$AA@ 0042ddcc     libvcruntime:undname.obj
 0002:00003ddc       ??_C@_09HIJEGCPM@__clrcall?$AA@ 0042dddc     libvcruntime:undname.obj
 0002:00003de8       ??_C@_06GHPCKEAG@__eabi?$AA@ 0042dde8     libvcruntime:undname.obj
 0002:00003df0       ??_C@_07JOMMBBKO@__ptr64?$AA@ 0042ddf0     libvcruntime:undname.obj
 0002:00003df8       ??_C@_0L@PILCLIHE@__restrict?$AA@ 0042ddf8     libvcruntime:undname.obj
 0002:00003e04       ??_C@_0M@GFIIJFMG@__unaligned?$AA@ 0042de04     libvcruntime:undname.obj
 0002:00003e10       ??_C@_09DHDLOLLB@restrict?$CI?$AA@ 0042de10     libvcruntime:undname.obj
 0002:00003e1c       ??_C@_04NIHEBCM@?5new?$AA@ 0042de1c     libvcruntime:undname.obj
 0002:00003e24       ??_C@_07FPCDHGMM@?5delete?$AA@ 0042de24     libvcruntime:undname.obj
 0002:00003e2c       ??_C@_01NEMOKFLO@?$DN?$AA@ 0042de2c     libvcruntime:undname.obj
 0002:00003e30       ??_C@_02GPIOPFAK@?$DO?$DO?$AA@ 0042de30     libvcruntime:undname.obj
 0002:00003e34       ??_C@_02FODMEDOG@?$DM?$DM?$AA@ 0042de34     libvcruntime:undname.obj
 0002:00003e38       ??_C@_01DCLJPIOD@?$CB?$AA@ 0042de38     libvcruntime:undname.obj
 0002:00003e3c       ??_C@_02EGOFBIJA@?$DN?$DN?$AA@ 0042de3c     libvcruntime:undname.obj
 0002:00003e40       ??_C@_02FDNJECIE@?$CB?$DN?$AA@ 0042de40     libvcruntime:undname.obj
 0002:00003e44       ??_C@_02GPECMEKF@?$FL?$FN?$AA@ 0042de44     libvcruntime:undname.obj
 0002:00003e48       ??_C@_08LHJFAFGD@operator?$AA@ 0042de48     libvcruntime:undname.obj
 0002:00003e54       ??_C@_02HBOOOICD@?9?$DO?$AA@ 0042de54     libvcruntime:undname.obj
 0002:00003e58       ??_C@_02ECNGHCIF@?$CL?$CL?$AA@ 0042de58     libvcruntime:undname.obj
 0002:00003e5c       ??_C@_02BAABKJLB@?9?9?$AA@ 0042de5c     libvcruntime:undname.obj
 0002:00003e60       ??_C@_01MIFGBAGJ@?$CL?$AA@ 0042de60     libvcruntime:undname.obj
 0002:00003e64       ??_C@_01HNPIGOCE@?$CG?$AA@ 0042de64     libvcruntime:undname.obj
 0002:00003e68       ??_C@_03MNHNFDLC@?9?$DO?$CK?$AA@ 0042de68     libvcruntime:undname.obj
 0002:00003e6c       ??_C@_01KMDKNFGN@?1?$AA@   0042de6c     libvcruntime:undname.obj
 0002:00003e70       ??_C@_01FGNFDNOH@?$CF?$AA@ 0042de70     libvcruntime:undname.obj
 0002:00003e74       ??_C@_01MNNFJEPP@?$DM?$AA@ 0042de74     libvcruntime:undname.obj
 0002:00003e78       ??_C@_02EHCHHCKH@?$DM?$DN?$AA@ 0042de78     libvcruntime:undname.obj
 0002:00003e7c       ??_C@_01PPODPGHN@?$DO?$AA@ 0042de7c     libvcruntime:undname.obj
 0002:00003e80       ??_C@_02EEKDKGMJ@?$DO?$DN?$AA@ 0042de80     libvcruntime:undname.obj
 0002:00003e84       ??_C@_01IHBHIGKO@?0?$AA@   0042de84     libvcruntime:undname.obj
 0002:00003e88       ??_C@_02HCKGKOFO@?$CI?$CJ?$AA@ 0042de88     libvcruntime:undname.obj
 0002:00003e8c       ??_C@_01PJKLJHI@?$HO?$AA@  0042de8c     libvcruntime:undname.obj
 0002:00003e90       ??_C@_01JKBOJNNK@?$FO?$AA@ 0042de90     libvcruntime:undname.obj
 0002:00003e94       ??_C@_01DNKMNLPK@?$HM?$AA@ 0042de94     libvcruntime:undname.obj
 0002:00003e98       ??_C@_02PPKAJPJL@?$CG?$CG?$AA@ 0042de98     libvcruntime:undname.obj
 0002:00003e9c       ??_C@_02NONPIBCD@?$HM?$HM?$AA@ 0042de9c     libvcruntime:undname.obj
 0002:00003ea0       ??_C@_02FPIMKNGF@?$CK?$DN?$AA@ 0042dea0     libvcruntime:undname.obj
 0002:00003ea4       ??_C@_02FOEOMHFC@?$CL?$DN?$AA@ 0042dea4     libvcruntime:undname.obj
 0002:00003ea8       ??_C@_02FKMDLLOA@?9?$DN?$AA@ 0042dea8     libvcruntime:undname.obj
 0002:00003eac       ??_C@_02FJEHGPIO@?1?$DN?$AA@ 0042deac     libvcruntime:undname.obj
 0002:00003eb0       ??_C@_02FENAOKFI@?$CF?$DN?$AA@ 0042deb0     libvcruntime:undname.obj
 0002:00003eb4       ??_C@_03IKFCCPFF@?$DO?$DO?$DN?$AA@ 0042deb4     libvcruntime:undname.obj
 0002:00003eb8       ??_C@_03CDNPDDLA@?$DM?$DM?$DN?$AA@ 0042deb8     libvcruntime:undname.obj
 0002:00003ebc       ??_C@_02FGJGFEAB@?$CG?$DN?$AA@ 0042debc     libvcruntime:undname.obj
 0002:00003ec0       ??_C@_02DHLNPPGH@?$HM?$DN?$AA@ 0042dec0     libvcruntime:undname.obj
 0002:00003ec4       ??_C@_02MHEGNOJ@?$FO?$DN?$AA@ 0042dec4     libvcruntime:undname.obj
 0002:00003ec8       ??_C@_09IFPLHPGF@?$GAvftable?8?$AA@ 0042dec8     libvcruntime:undname.obj
 0002:00003ed4       ??_C@_09BLBHBJP@?$GAvbtable?8?$AA@ 0042ded4     libvcruntime:undname.obj
 0002:00003ee0       ??_C@_07FEEIOKP@?$GAvcall?8?$AA@ 0042dee0     libvcruntime:undname.obj
 0002:00003ee8       ??_C@_08LLFFHHDJ@?$GAtypeof?8?$AA@ 0042dee8     libvcruntime:undname.obj
 0002:00003ef4       ??_C@_0BF@KDPPACIK@?$GAlocal?5static?5guard?8?$AA@ 0042def4     libvcruntime:undname.obj
 0002:00003f0c       ??_C@_08OBABFOLI@?$GAstring?8?$AA@ 0042df0c     libvcruntime:undname.obj
 0002:00003f18       ??_C@_0BD@JDLKDPAB@?$GAvbase?5destructor?8?$AA@ 0042df18     libvcruntime:undname.obj
 0002:00003f2c       ??_C@_0BN@DEGPLNFK@?$GAvector?5deleting?5destructor?8?$AA@ 0042df2c     libvcruntime:undname.obj
 0002:00003f4c       ??_C@_0BO@OBMKPJIG@?$GAdefault?5constructor?5closure?8?$AA@ 0042df4c     libvcruntime:undname.obj
 0002:00003f6c       ??_C@_0BN@IMDCHIKM@?$GAscalar?5deleting?5destructor?8?$AA@ 0042df6c     libvcruntime:undname.obj
 0002:00003f8c       ??_C@_0BO@PFGOCPJJ@?$GAvector?5constructor?5iterator?8?$AA@ 0042df8c     libvcruntime:undname.obj
 0002:00003fac       ??_C@_0BN@LFPFMEDL@?$GAvector?5destructor?5iterator?8?$AA@ 0042dfac     libvcruntime:undname.obj
 0002:00003fcc       ??_C@_0CE@IKBNEHA@?$GAvector?5vbase?5constructor?5iterat@ 0042dfcc     libvcruntime:undname.obj
 0002:00003ff0       ??_C@_0BL@NILFHHPC@?$GAvirtual?5displacement?5map?8?$AA@ 0042dff0     libvcruntime:undname.obj
 0002:0000400c       ??_C@_0CB@JONCMFFK@?$GAeh?5vector?5constructor?5iterator?8@ 0042e00c     libvcruntime:undname.obj
 0002:00004030       ??_C@_0CA@GCEOPDGL@?$GAeh?5vector?5destructor?5iterator?8?$AA@ 0042e030     libvcruntime:undname.obj
 0002:00004050       ??_C@_0CH@OOJPLCPH@?$GAeh?5vector?5vbase?5constructor?5ite@ 0042e050     libvcruntime:undname.obj
 0002:00004078       ??_C@_0BL@LLKPOHJI@?$GAcopy?5constructor?5closure?8?$AA@ 0042e078     libvcruntime:undname.obj
 0002:00004094       ??_C@_0BA@KBCDOMBN@?$GAudt?5returning?8?$AA@ 0042e094     libvcruntime:undname.obj
 0002:000040a4       ??_C@_03KLGMFNMG@?$GAEH?$AA@ 0042e0a4     libvcruntime:undname.obj
 0002:000040a8       ??_C@_05KHLCHHI@?$GARTTI?$AA@ 0042e0a8     libvcruntime:undname.obj
 0002:000040b0       ??_C@_0BA@KKLDJDLB@?$GAlocal?5vftable?8?$AA@ 0042e0b0     libvcruntime:undname.obj
 0002:000040c0       ??_C@_0CE@IIHCMGGL@?$GAlocal?5vftable?5constructor?5closu@ 0042e0c0     libvcruntime:undname.obj
 0002:000040e4       ??_C@_06FHBGPFGH@?5new?$FL?$FN?$AA@ 0042e0e4     libvcruntime:undname.obj
 0002:000040ec       ??_C@_09LBNFPBCA@?5delete?$FL?$FN?$AA@ 0042e0ec     libvcruntime:undname.obj
 0002:000040f8       ??_C@_0P@HJKNJFNN@?$GAomni?5callsig?8?$AA@ 0042e0f8     libvcruntime:undname.obj
 0002:00004108       ??_C@_0BL@CNOONJFP@?$GAplacement?5delete?5closure?8?$AA@ 0042e108     libvcruntime:undname.obj
 0002:00004124       ??_C@_0BN@CKNJLHMB@?$GAplacement?5delete?$FL?$FN?5closure?8?$AA@ 0042e124     libvcruntime:undname.obj
 0002:00004144       ??_C@_0CG@CFDHKGGD@?$GAmanaged?5vector?5constructor?5iter@ 0042e144     libvcruntime:undname.obj
 0002:0000416c       ??_C@_0CF@IMGKMJNO@?$GAmanaged?5vector?5destructor?5itera@ 0042e16c     libvcruntime:undname.obj
 0002:00004194       ??_C@_0CG@HLDDJMAG@?$GAeh?5vector?5copy?5constructor?5iter@ 0042e194     libvcruntime:undname.obj
 0002:000041bc       ??_C@_0CM@FCBBDIGB@?$GAeh?5vector?5vbase?5copy?5constructo@ 0042e1bc     libvcruntime:undname.obj
 0002:000041e8       ??_C@_0BL@CLIPGLGB@?$GAdynamic?5initializer?5for?5?8?$AA@ 0042e1e8     libvcruntime:undname.obj
 0002:00004204       ??_C@_0CB@PDBIFEP@?$GAdynamic?5atexit?5destructor?5for?5?8@ 0042e204     libvcruntime:undname.obj
 0002:00004228       ??_C@_0CD@CGAJBKEJ@?$GAvector?5copy?5constructor?5iterato@ 0042e228     libvcruntime:undname.obj
 0002:0000424c       ??_C@_0CJ@GJELGAMM@?$GAvector?5vbase?5copy?5constructor?5i@ 0042e24c     libvcruntime:undname.obj
 0002:00004278       ??_C@_0CL@FGIJHLCE@?$GAmanaged?5vector?5copy?5constructor@ 0042e278     libvcruntime:undname.obj
 0002:000042a4       ??_C@_0BM@PMGGMLDN@?$GAlocal?5static?5thread?5guard?8?$AA@ 0042e2a4     libvcruntime:undname.obj
 0002:000042c0       ??_C@_0N@BDNMDMOL@operator?5?$CC?$CC?5?$AA@ 0042e2c0     libvcruntime:undname.obj
 0002:000042d0       ??_C@_0BC@DAFEJGAK@?5Type?5Descriptor?8?$AA@ 0042e2d0     libvcruntime:undname.obj
 0002:000042e4       ??_C@_0BM@LDKODKLH@?5Base?5Class?5Descriptor?5at?5?$CI?$AA@ 0042e2e4     libvcruntime:undname.obj
 0002:00004300       ??_C@_0BD@LGICGFMM@?5Base?5Class?5Array?8?$AA@ 0042e300     libvcruntime:undname.obj
 0002:00004314       ??_C@_0BN@MECKDCOJ@?5Class?5Hierarchy?5Descriptor?8?$AA@ 0042e314     libvcruntime:undname.obj
 0002:00004334       ??_C@_0BK@CFCOFLF@?5Complete?5Object?5Locator?8?$AA@ 0042e334     libvcruntime:undname.obj
 0002:00004350       __real@3ff0000000000000    0042e350     libucrt:frexp.obj
 0002:00004358       __real@8000000000000000    0042e358     libucrt:frexp.obj
 0002:00004360       _format_validation_lookup_table 0042e360     libucrt:output.obj
 0002:000043bc       ??_C@_1O@CEDCILHN@?$AA?$CI?$AAn?$AAu?$AAl?$AAl?$AA?$CJ?$AA?$AA@ 0042e3bc     libucrt:output.obj
 0002:000043cc       ??_C@_06OJHGLDPL@?$CInull?$CJ?$AA@ 0042e3cc     libucrt:output.obj
 0002:00004538       __wctype                   0042e538     libucrt:ctype.obj
 0002:00004740       ___newctype                0042e740     libucrt:ctype.obj
 0002:00004a40       ___newclmap                0042ea40     libucrt:ctype.obj
 0002:00004bc0       ___newcumap                0042ebc0     libucrt:ctype.obj
 0002:00004d40       ?large_power_data@?1??multiply_by_power_of_ten@__crt_strtox@@YA_NAAUbig_integer@2@I@Z@4QBIB 0042ed40     libucrt:strtod.obj
 0002:00005648       ?large_power_indices@?1??multiply_by_power_of_ten@__crt_strtox@@YA_NAAUbig_integer@2@I@Z@4QBUunpack_index@?1??12@YA_N0I@Z@B 0042f648     libucrt:strtod.obj
 0002:000056e0       ?small_powers_of_ten@?1??multiply_by_power_of_ten@__crt_strtox@@YA_NAAUbig_integer@2@I@Z@4QBIB 0042f6e0     libucrt:strtod.obj
 0002:00005714       __half                     0042f714     libucrt:pow.obj
 0002:00005720       ___acrt_exception_action_table 0042f720     libucrt:exception_filter.obj
 0002:000057b0       ___acrt_signal_action_table_count 0042f7b0     libucrt:exception_filter.obj
 0002:000057b4       ___acrt_signal_action_first_fpe_index 0042f7b4     libucrt:exception_filter.obj
 0002:000057b8       ___acrt_signal_action_fpe_count 0042f7b8     libucrt:exception_filter.obj
 0002:000057bc       ??_C@_1BI@BGOHAHKC@?$AAm?$AAs?$AAc?$AAo?$AAr?$AAe?$AAe?$AA?4?$AAd?$AAl?$AAl?$AA?$AA@ 0042f7bc     libucrt:exit.obj
 0002:000057d4       ??_C@_0P@MIGLKIOC@CorExitProcess?$AA@ 0042f7d4     libucrt:exit.obj
 0002:00005860       ___lc_category             0042f860     libucrt:wsetlocale.obj
 0002:000058a8       ??_C@_1O@GIFLHMA@?$AAL?$AAC?$AA_?$AAA?$AAL?$AAL?$AA?$AA@ 0042f8a8     libucrt:wsetlocale.obj
 0002:000058b8       ??_C@_1BG@PPOMIBNJ@?$AAL?$AAC?$AA_?$AAC?$AAO?$AAL?$AAL?$AAA?$AAT?$AAE?$AA?$AA@ 0042f8b8     libucrt:wsetlocale.obj
 0002:000058d0       ??_C@_1BC@FFJGAPJM@?$AAL?$AAC?$AA_?$AAC?$AAT?$AAY?$AAP?$AAE?$AA?$AA@ 0042f8d0     libucrt:wsetlocale.obj
 0002:000058e4       ??_C@_1BI@PCKFNJFB@?$AAL?$AAC?$AA_?$AAM?$AAO?$AAN?$AAE?$AAT?$AAA?$AAR?$AAY?$AA?$AA@ 0042f8e4     libucrt:wsetlocale.obj
 0002:000058fc       ??_C@_1BG@ENIEDKID@?$AAL?$AAC?$AA_?$AAN?$AAU?$AAM?$AAE?$AAR?$AAI?$AAC?$AA?$AA@ 0042f8fc     libucrt:wsetlocale.obj
 0002:00005914       ??_C@_1BA@HAAOMIIG@?$AAL?$AAC?$AA_?$AAT?$AAI?$AAM?$AAE?$AA?$AA@ 0042f914     libucrt:wsetlocale.obj
 0002:000059a8       ??_C@_15NBPDDFIP@?$AA?$DN?$AA?$DL?$AA?$AA@ 0042f9a8     libucrt:wsetlocale.obj
 0002:000059b0       ??_C@_13PJJBFPED@?$AA?$DL?$AA?$AA@ 0042f9b0     libucrt:wsetlocale.obj
 0002:000059b4       ??_C@_13NMPKAAJP@?$AA?$DN?$AA?$AA@ 0042f9b4     libucrt:wsetlocale.obj
 0002:000059b8       ??_C@_13FHBKNHDA@?$AAC?$AA?$AA@ 0042f9b8     libucrt:wsetlocale.obj
 0002:000059bc       ??_C@_17MBJJLFDM@?$AA_?$AA?4?$AA?0?$AA?$AA@ 0042f9bc     libucrt:wsetlocale.obj
 0002:000059c4       ??_C@_13ENNFDPBH@?$AA_?$AA?$AA@ 0042f9c4     libucrt:wsetlocale.obj
 0002:000059c8       ??_C@_13JOFGPIOO@?$AA?4?$AA?$AA@ 0042f9c8     libucrt:wsetlocale.obj
 0002:00005ab8       ??_C@_03KHJOGHMM@exp?$AA@  0042fab8     libucrt:fpexcept.obj
 0002:00005abc       ??_C@_03JGHBODFD@pow?$AA@  0042fabc     libucrt:fpexcept.obj
 0002:00005ac0       ??_C@_03MGHMBJCF@log?$AA@  0042fac0     libucrt:fpexcept.obj
 0002:00005ac4       ??_C@_05HGHHAHAP@log10?$AA@ 0042fac4     libucrt:fpexcept.obj
 0002:00005acc       ??_C@_04COOMCNPB@sinh?$AA@ 0042facc     libucrt:fpexcept.obj
 0002:00005ad4       ??_C@_04HPJJNFIM@cosh?$AA@ 0042fad4     libucrt:fpexcept.obj
 0002:00005adc       ??_C@_04FJHINJAO@tanh?$AA@ 0042fadc     libucrt:fpexcept.obj
 0002:00005ae4       ??_C@_04FIHNOPOL@asin?$AA@ 0042fae4     libucrt:fpexcept.obj
 0002:00005aec       ??_C@_04PDIFKINK@acos?$AA@ 0042faec     libucrt:fpexcept.obj
 0002:00005af4       ??_C@_04MLLJIGOK@atan?$AA@ 0042faf4     libucrt:fpexcept.obj
 0002:00005afc       ??_C@_05KNGEOGJB@atan2?$AA@ 0042fafc     libucrt:fpexcept.obj
 0002:00005b04       ??_C@_04EIAKFFMI@sqrt?$AA@ 0042fb04     libucrt:fpexcept.obj
 0002:00005b0c       ??_C@_03BLEJJJBH@sin?$AA@  0042fb0c     libucrt:fpexcept.obj
 0002:00005b10       ??_C@_03LALBNOCG@cos?$AA@  0042fb10     libucrt:fpexcept.obj
 0002:00005b14       ??_C@_03IIINPABG@tan?$AA@  0042fb14     libucrt:fpexcept.obj
 0002:00005b18       ??_C@_04GFPJNGEK@ceil?$AA@ 0042fb18     libucrt:fpexcept.obj
 0002:00005b20       ??_C@_05PBJFFIGL@floor?$AA@ 0042fb20     libucrt:fpexcept.obj
 0002:00005b28       ??_C@_04ODHECPBC@fabs?$AA@ 0042fb28     libucrt:fpexcept.obj
 0002:00005b30       ??_C@_04EHEDPDJG@modf?$AA@ 0042fb30     libucrt:fpexcept.obj
 0002:00005b38       ??_C@_05CEJMAHNP@ldexp?$AA@ 0042fb38     libucrt:fpexcept.obj
 0002:00005b40       ??_C@_05KBKMEMPO@_cabs?$AA@ 0042fb40     libucrt:fpexcept.obj
 0002:00005b48       ??_C@_06MEIMCGCF@_hypot?$AA@ 0042fb48     libucrt:fpexcept.obj
 0002:00005b50       ??_C@_04KEPJIHGP@fmod?$AA@ 0042fb50     libucrt:fpexcept.obj
 0002:00005b58       ??_C@_05GKKHEGJL@frexp?$AA@ 0042fb58     libucrt:fpexcept.obj
 0002:00005b60       ??_C@_03MJLDFKDL@_y0?$AA@  0042fb60     libucrt:fpexcept.obj
 0002:00005b64       ??_C@_03NAKIGLHK@_y1?$AA@  0042fb64     libucrt:fpexcept.obj
 0002:00005b68       ??_C@_03ONILCKOB@_yn?$AA@  0042fb68     libucrt:fpexcept.obj
 0002:00005b6c       ??_C@_05JGDBENOH@_logb?$AA@ 0042fb6c     libucrt:fpexcept.obj
 0002:00005b74       ??_C@_0L@KDOEJCKC@_nextafter?$AA@ 0042fb74     libucrt:fpexcept.obj
 0002:00005b80       __d_inf                    0042fb80     libucrt:util.obj
 0002:00005b88       __d_max                    0042fb88     libucrt:util.obj
 0002:00005b90       __d_mzero                  0042fb90     libucrt:util.obj
 0002:00005bb0       ??_C@_03OEIAHPBN@INF?$AA@  0042fbb0     libucrt:cvt.obj
 0002:00005bb4       ??_C@_03OJHLLCGB@inf?$AA@  0042fbb4     libucrt:cvt.obj
 0002:00005bb8       ??_C@_03LKNCIKJB@NAN?$AA@  0042fbb8     libucrt:cvt.obj
 0002:00005bbc       ??_C@_03LHCJEHON@nan?$AA@  0042fbbc     libucrt:cvt.obj
 0002:00005bc0       ??_C@_09OFJJIMPC@NAN?$CISNAN?$CJ?$AA@ 0042fbc0     libucrt:cvt.obj
 0002:00005bcc       ??_C@_09IPFBKMDL@nan?$CIsnan?$CJ?$AA@ 0042fbcc     libucrt:cvt.obj
 0002:00005bd8       ??_C@_08IKHNHAJ@NAN?$CIIND?$CJ?$AA@ 0042fbd8     libucrt:cvt.obj
 0002:00005be4       ??_C@_08OFCDMILK@nan?$CIind?$CJ?$AA@ 0042fbe4     libucrt:cvt.obj
 0002:00005bf0       ??_C@_05KLBDPFGC@e?$CL000?$AA@ 0042fbf0     libucrt:cvt.obj
 0002:00005bf8       ??_C@_03KOEHGMDN@Sun?$AA@  0042fbf8     libucrt:nlsdata.obj
 0002:00005bfc       ??_C@_03PDAGKDH@Mon?$AA@   0042fbfc     libucrt:nlsdata.obj
 0002:00005c00       ??_C@_03NAGEINEP@Tue?$AA@  0042fc00     libucrt:nlsdata.obj
 0002:00005c04       ??_C@_03MHOMLAJA@Wed?$AA@  0042fc04     libucrt:nlsdata.obj
 0002:00005c08       ??_C@_03IOFIKPDN@Thu?$AA@  0042fc08     libucrt:nlsdata.obj
 0002:00005c0c       ??_C@_03IDIOELNC@Fri?$AA@  0042fc0c     libucrt:nlsdata.obj
 0002:00005c10       ??_C@_03FEFJNEK@Sat?$AA@   0042fc10     libucrt:nlsdata.obj
 0002:00005c14       ??_C@_06OOPIFAJ@Sunday?$AA@ 0042fc14     libucrt:nlsdata.obj
 0002:00005c1c       ??_C@_06JLEDEDGH@Monday?$AA@ 0042fc1c     libucrt:nlsdata.obj
 0002:00005c24       ??_C@_07BAAGCFCM@Tuesday?$AA@ 0042fc24     libucrt:nlsdata.obj
 0002:00005c2c       ??_C@_09DLIGFAKA@Wednesday?$AA@ 0042fc2c     libucrt:nlsdata.obj
 0002:00005c38       ??_C@_08HACCIKIA@Thursday?$AA@ 0042fc38     libucrt:nlsdata.obj
 0002:00005c44       ??_C@_06JECMNKMI@Friday?$AA@ 0042fc44     libucrt:nlsdata.obj
 0002:00005c4c       ??_C@_08INBOOONO@Saturday?$AA@ 0042fc4c     libucrt:nlsdata.obj
 0002:00005c58       ??_C@_03JIHJHPIE@Jan?$AA@  0042fc58     libucrt:nlsdata.obj
 0002:00005c5c       ??_C@_03HJBDCHOM@Feb?$AA@  0042fc5c     libucrt:nlsdata.obj
 0002:00005c60       ??_C@_03ODNJBKGA@Mar?$AA@  0042fc60     libucrt:nlsdata.obj
 0002:00005c64       ??_C@_03LEOLGMJP@Apr?$AA@  0042fc64     libucrt:nlsdata.obj
 0002:00005c68       ??_C@_03CNMDKL@May?$AA@    0042fc68     libucrt:nlsdata.obj
 0002:00005c6c       ??_C@_03IDFGHECI@Jun?$AA@  0042fc6c     libucrt:nlsdata.obj
 0002:00005c70       ??_C@_03LBGABGKK@Jul?$AA@  0042fc70     libucrt:nlsdata.obj
 0002:00005c74       ??_C@_03IFJFEIGA@Aug?$AA@  0042fc74     libucrt:nlsdata.obj
 0002:00005c78       ??_C@_03GGCAPAJC@Sep?$AA@  0042fc78     libucrt:nlsdata.obj
 0002:00005c7c       ??_C@_03BMAOKBAD@Oct?$AA@  0042fc7c     libucrt:nlsdata.obj
 0002:00005c80       ??_C@_03JPJOFNIA@Nov?$AA@  0042fc80     libucrt:nlsdata.obj
 0002:00005c84       ??_C@_03MKABNOCG@Dec?$AA@  0042fc84     libucrt:nlsdata.obj
 0002:00005c88       ??_C@_07CGJPFGJA@January?$AA@ 0042fc88     libucrt:nlsdata.obj
 0002:00005c90       ??_C@_08GNJGEPFN@February?$AA@ 0042fc90     libucrt:nlsdata.obj
 0002:00005c9c       ??_C@_05HPCKOFNC@March?$AA@ 0042fc9c     libucrt:nlsdata.obj
 0002:00005ca4       ??_C@_05DMJDNLEJ@April?$AA@ 0042fca4     libucrt:nlsdata.obj
 0002:00005cac       ??_C@_04CNLMGBGM@June?$AA@ 0042fcac     libucrt:nlsdata.obj
 0002:00005cb4       ??_C@_04MIEPOIFP@July?$AA@ 0042fcb4     libucrt:nlsdata.obj
 0002:00005cbc       ??_C@_06LBBHFDDG@August?$AA@ 0042fcbc     libucrt:nlsdata.obj
 0002:00005cc4       ??_C@_09BHHEALKD@September?$AA@ 0042fcc4     libucrt:nlsdata.obj
 0002:00005cd0       ??_C@_07JJNFCEND@October?$AA@ 0042fcd0     libucrt:nlsdata.obj
 0002:00005cd8       ??_C@_08HCHEGEOA@November?$AA@ 0042fcd8     libucrt:nlsdata.obj
 0002:00005ce4       ??_C@_08EDHMEBNP@December?$AA@ 0042fce4     libucrt:nlsdata.obj
 0002:00005cf0       ??_C@_02DEDBPAFC@AM?$AA@   0042fcf0     libucrt:nlsdata.obj
 0002:00005cf4       ??_C@_02CJNFDJBF@PM?$AA@   0042fcf4     libucrt:nlsdata.obj
 0002:00005cf8       ??_C@_08BPBNCDIB@MM?1dd?1yy?$AA@ 0042fcf8     libucrt:nlsdata.obj
 0002:00005d04       ??_C@_0BE@CKGJFCPC@dddd?0?5MMMM?5dd?0?5yyyy?$AA@ 0042fd04     libucrt:nlsdata.obj
 0002:00005d18       ??_C@_08JCCMCCIL@HH?3mm?3ss?$AA@ 0042fd18     libucrt:nlsdata.obj
 0002:00005d24       ??_C@_17MBGCMIPB@?$AAS?$AAu?$AAn?$AA?$AA@ 0042fd24     libucrt:nlsdata.obj
 0002:00005d2c       ??_C@_17KBOMKBF@?$AAM?$AAo?$AAn?$AA?$AA@ 0042fd2c     libucrt:nlsdata.obj
 0002:00005d34       ??_C@_17BMKGEGOJ@?$AAT?$AAu?$AAe?$AA?$AA@ 0042fd34     libucrt:nlsdata.obj
 0002:00005d3c       ??_C@_17CJEDCEPE@?$AAW?$AAe?$AAd?$AA?$AA@ 0042fd3c     libucrt:nlsdata.obj
 0002:00005d44       ??_C@_17PDPHAADD@?$AAT?$AAh?$AAu?$AA?$AA@ 0042fd44     libucrt:nlsdata.obj
 0002:00005d4c       ??_C@_17HFOLPPLP@?$AAF?$AAr?$AAi?$AA?$AA@ 0042fd4c     libucrt:nlsdata.obj
 0002:00005d54       ??_C@_17GGIBDPIH@?$AAS?$AAa?$AAt?$AA?$AA@ 0042fd54     libucrt:nlsdata.obj
 0002:00005d5c       ??_C@_1O@IHNHDHPB@?$AAS?$AAu?$AAn?$AAd?$AAa?$AAy?$AA?$AA@ 0042fd5c     libucrt:nlsdata.obj
 0002:00005d6c       ??_C@_1O@MMNBFLIA@?$AAM?$AAo?$AAn?$AAd?$AAa?$AAy?$AA?$AA@ 0042fd6c     libucrt:nlsdata.obj
 0002:00005d7c       ??_C@_1BA@ENFBFFEK@?$AAT?$AAu?$AAe?$AAs?$AAd?$AAa?$AAy?$AA?$AA@ 0042fd7c     libucrt:nlsdata.obj
 0002:00005d8c       ??_C@_1BE@EBOGMDOH@?$AAW?$AAe?$AAd?$AAn?$AAe?$AAs?$AAd?$AAa?$AAy?$AA?$AA@ 0042fd8c     libucrt:nlsdata.obj
 0002:00005da0       ??_C@_1BC@HHMNLIHE@?$AAT?$AAh?$AAu?$AAr?$AAs?$AAd?$AAa?$AAy?$AA?$AA@ 0042fda0     libucrt:nlsdata.obj
 0002:00005db4       ??_C@_1O@PDICJHAG@?$AAF?$AAr?$AAi?$AAd?$AAa?$AAy?$AA?$AA@ 0042fdb4     libucrt:nlsdata.obj
 0002:00005dc4       ??_C@_1BC@ENMNNPAJ@?$AAS?$AAa?$AAt?$AAu?$AAr?$AAd?$AAa?$AAy?$AA?$AA@ 0042fdc4     libucrt:nlsdata.obj
 0002:00005dd8       ??_C@_17DKNBKCHM@?$AAJ?$AAa?$AAn?$AA?$AA@ 0042fdd8     libucrt:nlsdata.obj
 0002:00005de0       ??_C@_17LMDJEKJN@?$AAF?$AAe?$AAb?$AA?$AA@ 0042fde0     libucrt:nlsdata.obj
 0002:00005de8       ??_C@_17CKNLEDEC@?$AAM?$AAa?$AAr?$AA?$AA@ 0042fde8     libucrt:nlsdata.obj
 0002:00005df0       ??_C@_17LFPOIHDD@?$AAA?$AAp?$AAr?$AA?$AA@ 0042fdf0     libucrt:nlsdata.obj
 0002:00005df8       ??_C@_17PNNKMEED@?$AAM?$AAa?$AAy?$AA?$AA@ 0042fdf8     libucrt:nlsdata.obj
 0002:00005e00       ??_C@_17KCJGOCPB@?$AAJ?$AAu?$AAn?$AA?$AA@ 0042fe00     libucrt:nlsdata.obj
 0002:00005e08       ??_C@_17IJPCKHK@?$AAJ?$AAu?$AAl?$AA?$AA@ 0042fe08     libucrt:nlsdata.obj
 0002:00005e10       ??_C@_17ICPELBCN@?$AAA?$AAu?$AAg?$AA?$AA@ 0042fe10     libucrt:nlsdata.obj
 0002:00005e18       ??_C@_17HCHCOKMG@?$AAS?$AAe?$AAp?$AA?$AA@ 0042fe18     libucrt:nlsdata.obj
 0002:00005e20       ??_C@_17FNLKOI@?$AAO?$AAc?$AAt?$AA?$AA@ 0042fe20     libucrt:nlsdata.obj
 0002:00005e28       ??_C@_17BBDMLCIG@?$AAN?$AAo?$AAv?$AA?$AA@ 0042fe28     libucrt:nlsdata.obj
 0002:00005e30       ??_C@_17EGKACKIF@?$AAD?$AAe?$AAc?$AA?$AA@ 0042fe30     libucrt:nlsdata.obj
 0002:00005e38       ??_C@_1BA@EFMEIEBA@?$AAJ?$AAa?$AAn?$AAu?$AAa?$AAr?$AAy?$AA?$AA@ 0042fe38     libucrt:nlsdata.obj
 0002:00005e48       ??_C@_1BC@JGDDFFAM@?$AAF?$AAe?$AAb?$AAr?$AAu?$AAa?$AAr?$AAy?$AA?$AA@ 0042fe48     libucrt:nlsdata.obj
 0002:00005e5c       ??_C@_1M@IKEENEDF@?$AAM?$AAa?$AAr?$AAc?$AAh?$AA?$AA@ 0042fe5c     libucrt:nlsdata.obj
 0002:00005e68       ??_C@_1M@GJNLMHFD@?$AAA?$AAp?$AAr?$AAi?$AAl?$AA?$AA@ 0042fe68     libucrt:nlsdata.obj
 0002:00005e74       ??_C@_19EPFLPGAP@?$AAJ?$AAu?$AAn?$AAe?$AA?$AA@ 0042fe74     libucrt:nlsdata.obj
 0002:00005e80       ??_C@_19BIFMLPCD@?$AAJ?$AAu?$AAl?$AAy?$AA?$AA@ 0042fe80     libucrt:nlsdata.obj
 0002:00005e8c       ??_C@_1O@PAHLKOAC@?$AAA?$AAu?$AAg?$AAu?$AAs?$AAt?$AA?$AA@ 0042fe8c     libucrt:nlsdata.obj
 0002:00005e9c       ??_C@_1BE@DKAAMBJL@?$AAS?$AAe?$AAp?$AAt?$AAe?$AAm?$AAb?$AAe?$AAr?$AA?$AA@ 0042fe9c     libucrt:nlsdata.obj
 0002:00005eb0       ??_C@_1BA@EPANDLNG@?$AAO?$AAc?$AAt?$AAo?$AAb?$AAe?$AAr?$AA?$AA@ 0042feb0     libucrt:nlsdata.obj
 0002:00005ec0       ??_C@_1BC@BGLIFPF@?$AAN?$AAo?$AAv?$AAe?$AAm?$AAb?$AAe?$AAr?$AA?$AA@ 0042fec0     libucrt:nlsdata.obj
 0002:00005ed4       ??_C@_1BC@FEMKIFH@?$AAD?$AAe?$AAc?$AAe?$AAm?$AAb?$AAe?$AAr?$AA?$AA@ 0042fed4     libucrt:nlsdata.obj
 0002:00005ee8       ??_C@_15ODEHAHHF@?$AAA?$AAM?$AA?$AA@ 0042fee8     libucrt:nlsdata.obj
 0002:00005ef0       ??_C@_15CLMNNGEL@?$AAP?$AAM?$AA?$AA@ 0042fef0     libucrt:nlsdata.obj
 0002:00005ef8       ??_C@_1BC@IEBCMHCM@?$AAM?$AAM?$AA?1?$AAd?$AAd?$AA?1?$AAy?$AAy?$AA?$AA@ 0042fef8     libucrt:nlsdata.obj
 0002:00005f0c       ??_C@_1CI@KNAKOEBC@?$AAd?$AAd?$AAd?$AAd?$AA?0?$AA?5?$AAM?$AAM?$AAM?$AAM?$AA?5?$AAd?$AAd?$AA?0?$AA?5?$AAy?$AAy?$AAy?$AAy?$AA?$AA@ 0042ff0c     libucrt:nlsdata.obj
 0002:00005f34       ??_C@_1BC@GDGBMEMK@?$AAH?$AAH?$AA?3?$AAm?$AAm?$AA?3?$AAs?$AAs?$AA?$AA@ 0042ff34     libucrt:nlsdata.obj
 0002:00005f48       ___lc_time_c               0042ff48     libucrt:nlsdata.obj
 0002:00006100       ??_C@_1EA@JGEFHKEI@?$AAa?$AAp?$AAi?$AA?9?$AAm?$AAs?$AA?9?$AAw?$AAi?$AAn?$AA?9?$AAc?$AAo?$AAr?$AAe?$AA?9?$AAd?$AAa?$AAt?$AAe?$AAt?$AAi?$AAm?$AAe?$AA?9?$AAl?$AA1?$AA?9?$AA1?$AA?9?$AA1?$AA?$AA@ 00430100     libucrt:winapi_thunks.obj
 0002:00006140       ??_C@_1EI@MPIAOHOC@?$AAa?$AAp?$AAi?$AA?9?$AAm?$AAs?$AA?9?$AAw?$AAi?$AAn?$AA?9?$AAc?$AAo?$AAr?$AAe?$AA?9?$AAl?$AAo?$AAc?$AAa?$AAl?$AAi?$AAz?$AAa?$AAt?$AAi?$AAo?$AAn?$AA?9?$AAl?$AA1?$AA?9@ 00430140     libucrt:winapi_thunks.obj
 0002:00006188       ??_C@_1FK@FPHCKFIE@?$AAa?$AAp?$AAi?$AA?9?$AAm?$AAs?$AA?9?$AAw?$AAi?$AAn?$AA?9?$AAc?$AAo?$AAr?$AAe?$AA?9?$AAl?$AAo?$AAc?$AAa?$AAl?$AAi?$AAz?$AAa?$AAt?$AAi?$AAo?$AAn?$AA?9?$AAo?$AAb?$AAs@ 00430188     libucrt:winapi_thunks.obj
 0002:000061e8       ??_C@_1EM@DILCGIIO@?$AAa?$AAp?$AAi?$AA?9?$AAm?$AAs?$AA?9?$AAw?$AAi?$AAn?$AA?9?$AAc?$AAo?$AAr?$AAe?$AA?9?$AAp?$AAr?$AAo?$AAc?$AAe?$AAs?$AAs?$AAt?$AAh?$AAr?$AAe?$AAa?$AAd?$AAs?$AA?9?$AAl@ 004301e8     libucrt:winapi_thunks.obj
 0002:00006234       ??_C@_1DM@LNCGDDPN@?$AAa?$AAp?$AAi?$AA?9?$AAm?$AAs?$AA?9?$AAw?$AAi?$AAn?$AA?9?$AAc?$AAo?$AAr?$AAe?$AA?9?$AAs?$AAt?$AAr?$AAi?$AAn?$AAg?$AA?9?$AAl?$AA1?$AA?9?$AA1?$AA?9?$AA0?$AA?$AA@ 00430234     libucrt:winapi_thunks.obj
 0002:00006270       ??_C@_1DO@FPAPJEMD@?$AAa?$AAp?$AAi?$AA?9?$AAm?$AAs?$AA?9?$AAw?$AAi?$AAn?$AA?9?$AAc?$AAo?$AAr?$AAe?$AA?9?$AAs?$AAy?$AAs?$AAi?$AAn?$AAf?$AAo?$AA?9?$AAl?$AA1?$AA?9?$AA2?$AA?9?$AA1?$AA?$AA@ 00430270     libucrt:winapi_thunks.obj
 0002:000062b0       ??_C@_1DK@NDHNAHIO@?$AAa?$AAp?$AAi?$AA?9?$AAm?$AAs?$AA?9?$AAw?$AAi?$AAn?$AA?9?$AAc?$AAo?$AAr?$AAe?$AA?9?$AAw?$AAi?$AAn?$AAr?$AAt?$AA?9?$AAl?$AA1?$AA?9?$AA1?$AA?9?$AA0?$AA?$AA@ 004302b0     libucrt:winapi_thunks.obj
 0002:000062ec       ??_C@_1DM@KGHDGBCM@?$AAa?$AAp?$AAi?$AA?9?$AAm?$AAs?$AA?9?$AAw?$AAi?$AAn?$AA?9?$AAc?$AAo?$AAr?$AAe?$AA?9?$AAx?$AAs?$AAt?$AAa?$AAt?$AAe?$AA?9?$AAl?$AA2?$AA?9?$AA1?$AA?9?$AA0?$AA?$AA@ 004302ec     libucrt:winapi_thunks.obj
 0002:00006328       ??_C@_1EO@IJIOEFOH@?$AAa?$AAp?$AAi?$AA?9?$AAm?$AAs?$AA?9?$AAw?$AAi?$AAn?$AA?9?$AAr?$AAt?$AAc?$AAo?$AAr?$AAe?$AA?9?$AAn?$AAt?$AAu?$AAs?$AAe?$AAr?$AA?9?$AAw?$AAi?$AAn?$AAd?$AAo?$AAw?$AA?9@ 00430328     libucrt:winapi_thunks.obj
 0002:00006378       ??_C@_1FG@HHGEKANL@?$AAa?$AAp?$AAi?$AA?9?$AAm?$AAs?$AA?9?$AAw?$AAi?$AAn?$AA?9?$AAs?$AAe?$AAc?$AAu?$AAr?$AAi?$AAt?$AAy?$AA?9?$AAs?$AAy?$AAs?$AAt?$AAe?$AAm?$AAf?$AAu?$AAn?$AAc?$AAt?$AAi@ 00430378     libucrt:winapi_thunks.obj
 0002:000063d0       ??_C@_1EG@DBIOJECG@?$AAe?$AAx?$AAt?$AA?9?$AAm?$AAs?$AA?9?$AAw?$AAi?$AAn?$AA?9?$AAn?$AAt?$AAu?$AAs?$AAe?$AAr?$AA?9?$AAd?$AAi?$AAa?$AAl?$AAo?$AAg?$AAb?$AAo?$AAx?$AA?9?$AAl?$AA1?$AA?9?$AA1@ 004303d0     libucrt:winapi_thunks.obj
 0002:00006418       ??_C@_1EO@FIHMJCLF@?$AAe?$AAx?$AAt?$AA?9?$AAm?$AAs?$AA?9?$AAw?$AAi?$AAn?$AA?9?$AAn?$AAt?$AAu?$AAs?$AAe?$AAr?$AA?9?$AAw?$AAi?$AAn?$AAd?$AAo?$AAw?$AAs?$AAt?$AAa?$AAt?$AAi?$AAo?$AAn?$AA?9@ 00430418     libucrt:winapi_thunks.obj
 0002:00006468       ??_C@_1M@OAIMIKLP@?$AAn?$AAt?$AAd?$AAl?$AAl?$AA?$AA@ 00430468     libucrt:winapi_thunks.obj
 0002:00006478       ??_C@_1EG@DPGNFKGC@?$AAa?$AAp?$AAi?$AA?9?$AAm?$AAs?$AA?9?$AAw?$AAi?$AAn?$AA?9?$AAa?$AAp?$AAp?$AAm?$AAo?$AAd?$AAe?$AAl?$AA?9?$AAr?$AAu?$AAn?$AAt?$AAi?$AAm?$AAe?$AA?9?$AAl?$AA1?$AA?9?$AA1@ 00430478     libucrt:winapi_thunks.obj
 0002:000064c0       ??_C@_1O@BCCLBEOE@?$AAu?$AAs?$AAe?$AAr?$AA3?$AA2?$AA?$AA@ 004304c0     libucrt:winapi_thunks.obj
 0002:000064d0       ??_C@_1BA@PFFKHIOG@?$AAa?$AAp?$AAi?$AA?9?$AAm?$AAs?$AA?9?$AA?$AA@ 004304d0     libucrt:winapi_thunks.obj
 0002:000064e0       ??_C@_1BA@IAIFMGEF@?$AAe?$AAx?$AAt?$AA?9?$AAm?$AAs?$AA?9?$AA?$AA@ 004304e0     libucrt:winapi_thunks.obj
 0002:000064f4       ??_C@_0BA@FHFNEAED@AreFileApisANSI?$AA@ 004304f4     libucrt:winapi_thunks.obj
 0002:00006514       ??_C@_0BE@LJANKFHF@EnumSystemLocalesEx?$AA@ 00430514     libucrt:winapi_thunks.obj
 0002:00006550       ??_C@_0BA@EPCJIIPD@GetDateFormatEx?$AA@ 00430550     libucrt:winapi_thunks.obj
 0002:00006570       ??_C@_0BA@CIJJKCJJ@GetTimeFormatEx?$AA@ 00430570     libucrt:winapi_thunks.obj
 0002:00006588       ??_C@_0BJ@PBCCBIPI@GetUserDefaultLocaleName?$AA@ 00430588     libucrt:winapi_thunks.obj
 0002:000065b4       ??_C@_0BC@CELBKLLA@IsValidLocaleName?$AA@ 004305b4     libucrt:winapi_thunks.obj
 0002:000065d8       ??_C@_0BB@CDHDDLLP@LCIDToLocaleName?$AA@ 004305d8     libucrt:winapi_thunks.obj
 0002:000065f4       ??_C@_0BB@HBDEELFH@LocaleNameToLCID?$AA@ 004305f4     libucrt:winapi_thunks.obj
 0002:0000660c       ??_C@_0CF@OJOFEIGO@AppPolicyGetProcessTerminationMe@ 0043060c     libucrt:winapi_thunks.obj
 0002:00006634       ?ccs@?1???$__acrt_stdio_parse_mode@_W@@YA?AU__acrt_stdio_stream_mode@@QB_W@Z@4QB_WB 00430634     libucrt:openfile.obj
 0002:0000663c       ?utf8_encoding@?1???$__acrt_stdio_parse_mode@_W@@YA?AU__acrt_stdio_stream_mode@@QB_W@Z@4QB_WB 0043063c     libucrt:openfile.obj
 0002:00006648       ?utf16_encoding@?1???$__acrt_stdio_parse_mode@_W@@YA?AU__acrt_stdio_stream_mode@@QB_W@Z@4QB_WB 00430648     libucrt:openfile.obj
 0002:00006658       ?unicode_encoding@?1???$__acrt_stdio_parse_mode@_W@@YA?AU__acrt_stdio_stream_mode@@QB_W@Z@4QB_WB 00430658     libucrt:openfile.obj
 0002:00006730       __infinity                 00430730     libucrt:87tran.obj
 0002:0000673a       __minfinity                0043073a     libucrt:87tran.obj
 0002:00006744       __logemax                  00430744     libucrt:87tran.obj
 0002:0000676a       __OP_EXPjmptab             0043076a     libucrt:87tran.obj
 0002:00006790       __indefinite               00430790     libucrt:87disp.obj
 0002:0000679a       __piby2                    0043079a     libucrt:87disp.obj
 0002:000067a4       __piby4                    004307a4     libucrt:87disp.obj
 0002:000067d8       __DEFAULT_CW_in_mem        004307d8     libucrt:common.obj
 0002:000067da       __pi_by_2_to_61            004307da     libucrt:common.obj
 0002:00006818       __real@3fe0000000000000    00430818     libucrt:powhlp.obj
 0002:00006830       ??_C@_1BC@LLOKLNP@?$AAa?$AAm?$AAe?$AAr?$AAi?$AAc?$AAa?$AAn?$AA?$AA@ 00430830     libucrt:get_qualified_locale.obj
 0002:00006844       ??_C@_1CC@HEIGCDGG@?$AAa?$AAm?$AAe?$AAr?$AAi?$AAc?$AAa?$AAn?$AA?5?$AAe?$AAn?$AAg?$AAl?$AAi?$AAs?$AAh?$AA?$AA@ 00430844     libucrt:get_qualified_locale.obj
 0002:00006868       ??_C@_1CC@IHCNOMIN@?$AAa?$AAm?$AAe?$AAr?$AAi?$AAc?$AAa?$AAn?$AA?9?$AAe?$AAn?$AAg?$AAl?$AAi?$AAs?$AAh?$AA?$AA@ 00430868     libucrt:get_qualified_locale.obj
 0002:0000688c       ??_C@_1BG@GKAGPCGG@?$AAa?$AAu?$AAs?$AAt?$AAr?$AAa?$AAl?$AAi?$AAa?$AAn?$AA?$AA@ 0043088c     libucrt:get_qualified_locale.obj
 0002:000068a4       ??_C@_1BA@GMENCENF@?$AAb?$AAe?$AAl?$AAg?$AAi?$AAa?$AAn?$AA?$AA@ 004308a4     libucrt:get_qualified_locale.obj
 0002:000068b4       ??_C@_1BC@PJMIIAAN@?$AAc?$AAa?$AAn?$AAa?$AAd?$AAi?$AAa?$AAn?$AA?$AA@ 004308b4     libucrt:get_qualified_locale.obj
 0002:000068c8       ??_C@_17NOIMNFBF@?$AAc?$AAh?$AAh?$AA?$AA@ 004308c8     libucrt:get_qualified_locale.obj
 0002:000068d0       ??_C@_17GGDALCHA@?$AAc?$AAh?$AAi?$AA?$AA@ 004308d0     libucrt:get_qualified_locale.obj
 0002:000068d8       ??_C@_1BA@NPNJKIBL@?$AAc?$AAh?$AAi?$AAn?$AAe?$AAs?$AAe?$AA?$AA@ 004308d8     libucrt:get_qualified_locale.obj
 0002:000068e8       ??_C@_1CC@DINBAMMJ@?$AAc?$AAh?$AAi?$AAn?$AAe?$AAs?$AAe?$AA?9?$AAh?$AAo?$AAn?$AAg?$AAk?$AAo?$AAn?$AAg?$AA?$AA@ 004308e8     libucrt:get_qualified_locale.obj
 0002:0000690c       ??_C@_1CG@IOBJPACO@?$AAc?$AAh?$AAi?$AAn?$AAe?$AAs?$AAe?$AA?9?$AAs?$AAi?$AAm?$AAp?$AAl?$AAi?$AAf?$AAi?$AAe?$AAd?$AA?$AA@ 0043090c     libucrt:get_qualified_locale.obj
 0002:00006934       ??_C@_1CE@GAJNDCKG@?$AAc?$AAh?$AAi?$AAn?$AAe?$AAs?$AAe?$AA?9?$AAs?$AAi?$AAn?$AAg?$AAa?$AAp?$AAo?$AAr?$AAe?$AA?$AA@ 00430934     libucrt:get_qualified_locale.obj
 0002:00006958       ??_C@_1CI@PAJPIOOD@?$AAc?$AAh?$AAi?$AAn?$AAe?$AAs?$AAe?$AA?9?$AAt?$AAr?$AAa?$AAd?$AAi?$AAt?$AAi?$AAo?$AAn?$AAa?$AAl?$AA?$AA@ 00430958     libucrt:get_qualified_locale.obj
 0002:00006980       ??_C@_1BM@NILJBMMD@?$AAd?$AAu?$AAt?$AAc?$AAh?$AA?9?$AAb?$AAe?$AAl?$AAg?$AAi?$AAa?$AAn?$AA?$AA@ 00430980     libucrt:get_qualified_locale.obj
 0002:0000699c       ??_C@_1CC@OOJPJNEJ@?$AAe?$AAn?$AAg?$AAl?$AAi?$AAs?$AAh?$AA?9?$AAa?$AAm?$AAe?$AAr?$AAi?$AAc?$AAa?$AAn?$AA?$AA@ 0043099c     libucrt:get_qualified_locale.obj
 0002:000069c0       ??_C@_1BI@IOLFEEM@?$AAe?$AAn?$AAg?$AAl?$AAi?$AAs?$AAh?$AA?9?$AAa?$AAu?$AAs?$AA?$AA@ 004309c0     libucrt:get_qualified_locale.obj
 0002:000069d8       ??_C@_1BO@HFFNLENJ@?$AAe?$AAn?$AAg?$AAl?$AAi?$AAs?$AAh?$AA?9?$AAb?$AAe?$AAl?$AAi?$AAz?$AAe?$AA?$AA@ 004309d8     libucrt:get_qualified_locale.obj
 0002:000069f8       ??_C@_1BI@HAPKJMPO@?$AAe?$AAn?$AAg?$AAl?$AAi?$AAs?$AAh?$AA?9?$AAc?$AAa?$AAn?$AA?$AA@ 004309f8     libucrt:get_qualified_locale.obj
 0002:00006a10       ??_C@_1CE@HLNDMIOJ@?$AAe?$AAn?$AAg?$AAl?$AAi?$AAs?$AAh?$AA?9?$AAc?$AAa?$AAr?$AAi?$AAb?$AAb?$AAe?$AAa?$AAn?$AA?$AA@ 00430a10     libucrt:get_qualified_locale.obj
 0002:00006a34       ??_C@_1BI@LDHJHHAC@?$AAe?$AAn?$AAg?$AAl?$AAi?$AAs?$AAh?$AA?9?$AAi?$AAr?$AAe?$AA?$AA@ 00430a34     libucrt:get_qualified_locale.obj
 0002:00006a4c       ??_C@_1CA@NJMMCFOC@?$AAe?$AAn?$AAg?$AAl?$AAi?$AAs?$AAh?$AA?9?$AAj?$AAa?$AAm?$AAa?$AAi?$AAc?$AAa?$AA?$AA@ 00430a4c     libucrt:get_qualified_locale.obj
 0002:00006a6c       ??_C@_1BG@BHJEBBGG@?$AAe?$AAn?$AAg?$AAl?$AAi?$AAs?$AAh?$AA?9?$AAn?$AAz?$AA?$AA@ 00430a6c     libucrt:get_qualified_locale.obj
 0002:00006a84       ??_C@_1CK@FGOEJJCO@?$AAe?$AAn?$AAg?$AAl?$AAi?$AAs?$AAh?$AA?9?$AAs?$AAo?$AAu?$AAt?$AAh?$AA?5?$AAa?$AAf?$AAr?$AAi?$AAc?$AAa?$AA?$AA@ 00430a84     libucrt:get_qualified_locale.obj
 0002:00006ab0       ??_C@_1DE@PDBJPCJ@?$AAe?$AAn?$AAg?$AAl?$AAi?$AAs?$AAh?$AA?9?$AAt?$AAr?$AAi?$AAn?$AAi?$AAd?$AAa?$AAd?$AA?5?$AAy?$AA?5?$AAt?$AAo?$AAb?$AAa?$AAg?$AAo?$AA?$AA@ 00430ab0     libucrt:get_qualified_locale.obj
 0002:00006ae4       ??_C@_1BG@JGCANDME@?$AAe?$AAn?$AAg?$AAl?$AAi?$AAs?$AAh?$AA?9?$AAu?$AAk?$AA?$AA@ 00430ae4     libucrt:get_qualified_locale.obj
 0002:00006afc       ??_C@_1BG@DINKMLE@?$AAe?$AAn?$AAg?$AAl?$AAi?$AAs?$AAh?$AA?9?$AAu?$AAs?$AA?$AA@ 00430afc     libucrt:get_qualified_locale.obj
 0002:00006b14       ??_C@_1BI@NMFDBHJE@?$AAe?$AAn?$AAg?$AAl?$AAi?$AAs?$AAh?$AA?9?$AAu?$AAs?$AAa?$AA?$AA@ 00430b14     libucrt:get_qualified_locale.obj
 0002:00006b2c       ??_C@_1BO@OIHKJKII@?$AAf?$AAr?$AAe?$AAn?$AAc?$AAh?$AA?9?$AAb?$AAe?$AAl?$AAg?$AAi?$AAa?$AAn?$AA?$AA@ 00430b2c     libucrt:get_qualified_locale.obj
 0002:00006b4c       ??_C@_1CA@NKAELJKI@?$AAf?$AAr?$AAe?$AAn?$AAc?$AAh?$AA?9?$AAc?$AAa?$AAn?$AAa?$AAd?$AAi?$AAa?$AAn?$AA?$AA@ 00430b4c     libucrt:get_qualified_locale.obj
 0002:00006b6c       ??_C@_1CE@MGKCNLGN@?$AAf?$AAr?$AAe?$AAn?$AAc?$AAh?$AA?9?$AAl?$AAu?$AAx?$AAe?$AAm?$AAb?$AAo?$AAu?$AAr?$AAg?$AA?$AA@ 00430b6c     libucrt:get_qualified_locale.obj
 0002:00006b90       ??_C@_1BK@CEGEAILM@?$AAf?$AAr?$AAe?$AAn?$AAc?$AAh?$AA?9?$AAs?$AAw?$AAi?$AAs?$AAs?$AA?$AA@ 00430b90     libucrt:get_qualified_locale.obj
 0002:00006bac       ??_C@_1CA@PAFKEOCC@?$AAg?$AAe?$AAr?$AAm?$AAa?$AAn?$AA?9?$AAa?$AAu?$AAs?$AAt?$AAr?$AAi?$AAa?$AAn?$AA?$AA@ 00430bac     libucrt:get_qualified_locale.obj
 0002:00006bcc       ??_C@_1CI@HCFHGOFD@?$AAg?$AAe?$AAr?$AAm?$AAa?$AAn?$AA?9?$AAl?$AAi?$AAc?$AAh?$AAt?$AAe?$AAn?$AAs?$AAt?$AAe?$AAi?$AAn?$AA?$AA@ 00430bcc     libucrt:get_qualified_locale.obj
 0002:00006bf4       ??_C@_1CE@FEDDNPDG@?$AAg?$AAe?$AAr?$AAm?$AAa?$AAn?$AA?9?$AAl?$AAu?$AAx?$AAe?$AAm?$AAb?$AAo?$AAu?$AAr?$AAg?$AA?$AA@ 00430bf4     libucrt:get_qualified_locale.obj
 0002:00006c18       ??_C@_1BK@LIMINNMN@?$AAg?$AAe?$AAr?$AAm?$AAa?$AAn?$AA?9?$AAs?$AAw?$AAi?$AAs?$AAs?$AA?$AA@ 00430c18     libucrt:get_qualified_locale.obj
 0002:00006c34       ??_C@_1BM@LGMDBEPD@?$AAi?$AAr?$AAi?$AAs?$AAh?$AA?9?$AAe?$AAn?$AAg?$AAl?$AAi?$AAs?$AAh?$AA?$AA@ 00430c34     libucrt:get_qualified_locale.obj
 0002:00006c50       ??_C@_1BM@NNCFBAEE@?$AAi?$AAt?$AAa?$AAl?$AAi?$AAa?$AAn?$AA?9?$AAs?$AAw?$AAi?$AAs?$AAs?$AA?$AA@ 00430c50     libucrt:get_qualified_locale.obj
 0002:00006c6c       ??_C@_1BE@FEDJNPIB@?$AAn?$AAo?$AAr?$AAw?$AAe?$AAg?$AAi?$AAa?$AAn?$AA?$AA@ 00430c6c     libucrt:get_qualified_locale.obj
 0002:00006c80       ??_C@_1CC@CILKDEIE@?$AAn?$AAo?$AAr?$AAw?$AAe?$AAg?$AAi?$AAa?$AAn?$AA?9?$AAb?$AAo?$AAk?$AAm?$AAa?$AAl?$AA?$AA@ 00430c80     libucrt:get_qualified_locale.obj
 0002:00006ca4       ??_C@_1CE@DHMMHEPL@?$AAn?$AAo?$AAr?$AAw?$AAe?$AAg?$AAi?$AAa?$AAn?$AA?9?$AAn?$AAy?$AAn?$AAo?$AAr?$AAs?$AAk?$AA?$AA@ 00430ca4     libucrt:get_qualified_locale.obj
 0002:00006cc8       ??_C@_1CK@OPNMHECD@?$AAp?$AAo?$AAr?$AAt?$AAu?$AAg?$AAu?$AAe?$AAs?$AAe?$AA?9?$AAb?$AAr?$AAa?$AAz?$AAi?$AAl?$AAi?$AAa?$AAn?$AA?$AA@ 00430cc8     libucrt:get_qualified_locale.obj
 0002:00006cf4       ??_C@_1CE@KEEHCDB@?$AAs?$AAp?$AAa?$AAn?$AAi?$AAs?$AAh?$AA?9?$AAa?$AAr?$AAg?$AAe?$AAn?$AAt?$AAi?$AAn?$AAa?$AA?$AA@ 00430cf4     libucrt:get_qualified_locale.obj
 0002:00006d18       ??_C@_1CA@GIAOLHJD@?$AAs?$AAp?$AAa?$AAn?$AAi?$AAs?$AAh?$AA?9?$AAb?$AAo?$AAl?$AAi?$AAv?$AAi?$AAa?$AA?$AA@ 00430d18     libucrt:get_qualified_locale.obj
 0002:00006d38       ??_C@_1BM@OJNDFNPD@?$AAs?$AAp?$AAa?$AAn?$AAi?$AAs?$AAh?$AA?9?$AAc?$AAh?$AAi?$AAl?$AAe?$AA?$AA@ 00430d38     libucrt:get_qualified_locale.obj
 0002:00006d54       ??_C@_1CC@OCOLPALL@?$AAs?$AAp?$AAa?$AAn?$AAi?$AAs?$AAh?$AA?9?$AAc?$AAo?$AAl?$AAo?$AAm?$AAb?$AAi?$AAa?$AA?$AA@ 00430d54     libucrt:get_qualified_locale.obj
 0002:00006d78       ??_C@_1CG@BPOFMKBB@?$AAs?$AAp?$AAa?$AAn?$AAi?$AAs?$AAh?$AA?9?$AAc?$AAo?$AAs?$AAt?$AAa?$AA?5?$AAr?$AAi?$AAc?$AAa?$AA?$AA@ 00430d78     libucrt:get_qualified_locale.obj
 0002:00006da0       ??_C@_1DG@IGOBAPBB@?$AAs?$AAp?$AAa?$AAn?$AAi?$AAs?$AAh?$AA?9?$AAd?$AAo?$AAm?$AAi?$AAn?$AAi?$AAc?$AAa?$AAn?$AA?5?$AAr?$AAe?$AAp?$AAu?$AAb?$AAl?$AAi?$AAc?$AA?$AA@ 00430da0     libucrt:get_qualified_locale.obj
 0002:00006dd8       ??_C@_1CA@JHAPGEGI@?$AAs?$AAp?$AAa?$AAn?$AAi?$AAs?$AAh?$AA?9?$AAe?$AAc?$AAu?$AAa?$AAd?$AAo?$AAr?$AA?$AA@ 00430dd8     libucrt:get_qualified_locale.obj
 0002:00006df8       ??_C@_1CI@LAPALJPP@?$AAs?$AAp?$AAa?$AAn?$AAi?$AAs?$AAh?$AA?9?$AAe?$AAl?$AA?5?$AAs?$AAa?$AAl?$AAv?$AAa?$AAd?$AAo?$AAr?$AA?$AA@ 00430df8     libucrt:get_qualified_locale.obj
 0002:00006e20       ??_C@_1CE@PDGBOFOM@?$AAs?$AAp?$AAa?$AAn?$AAi?$AAs?$AAh?$AA?9?$AAg?$AAu?$AAa?$AAt?$AAe?$AAm?$AAa?$AAl?$AAa?$AA?$AA@ 00430e20     libucrt:get_qualified_locale.obj
 0002:00006e44       ??_C@_1CC@NBEBAODI@?$AAs?$AAp?$AAa?$AAn?$AAi?$AAs?$AAh?$AA?9?$AAh?$AAo?$AAn?$AAd?$AAu?$AAr?$AAa?$AAs?$AA?$AA@ 00430e44     libucrt:get_qualified_locale.obj
 0002:00006e68       ??_C@_1CA@LLKGHBMF@?$AAs?$AAp?$AAa?$AAn?$AAi?$AAs?$AAh?$AA?9?$AAm?$AAe?$AAx?$AAi?$AAc?$AAa?$AAn?$AA?$AA@ 00430e68     libucrt:get_qualified_locale.obj
 0002:00006e88       ??_C@_1BO@LKNDOIGD@?$AAs?$AAp?$AAa?$AAn?$AAi?$AAs?$AAh?$AA?9?$AAm?$AAo?$AAd?$AAe?$AAr?$AAn?$AA?$AA@ 00430e88     libucrt:get_qualified_locale.obj
 0002:00006ea8       ??_C@_1CE@NMDMOEEB@?$AAs?$AAp?$AAa?$AAn?$AAi?$AAs?$AAh?$AA?9?$AAn?$AAi?$AAc?$AAa?$AAr?$AAa?$AAg?$AAu?$AAa?$AA?$AA@ 00430ea8     libucrt:get_qualified_locale.obj
 0002:00006ecc       ??_C@_1BO@LLCBEJGB@?$AAs?$AAp?$AAa?$AAn?$AAi?$AAs?$AAh?$AA?9?$AAp?$AAa?$AAn?$AAa?$AAm?$AAa?$AA?$AA@ 00430ecc     libucrt:get_qualified_locale.obj
 0002:00006eec       ??_C@_1CC@FKPGGIHO@?$AAs?$AAp?$AAa?$AAn?$AAi?$AAs?$AAh?$AA?9?$AAp?$AAa?$AAr?$AAa?$AAg?$AAu?$AAa?$AAy?$AA?$AA@ 00430eec     libucrt:get_qualified_locale.obj
 0002:00006f10       ??_C@_1BK@CDEIHOOP@?$AAs?$AAp?$AAa?$AAn?$AAi?$AAs?$AAh?$AA?9?$AAp?$AAe?$AAr?$AAu?$AA?$AA@ 00430f10     libucrt:get_qualified_locale.obj
 0002:00006f2c       ??_C@_1CI@GAHAKKGP@?$AAs?$AAp?$AAa?$AAn?$AAi?$AAs?$AAh?$AA?9?$AAp?$AAu?$AAe?$AAr?$AAt?$AAo?$AA?5?$AAr?$AAi?$AAc?$AAo?$AA?$AA@ 00430f2c     libucrt:get_qualified_locale.obj
 0002:00006f54       ??_C@_1CA@NKJBCAGP@?$AAs?$AAp?$AAa?$AAn?$AAi?$AAs?$AAh?$AA?9?$AAu?$AAr?$AAu?$AAg?$AAu?$AAa?$AAy?$AA?$AA@ 00430f54     libucrt:get_qualified_locale.obj
 0002:00006f74       ??_C@_1CE@ODILCONM@?$AAs?$AAp?$AAa?$AAn?$AAi?$AAs?$AAh?$AA?9?$AAv?$AAe?$AAn?$AAe?$AAz?$AAu?$AAe?$AAl?$AAa?$AA?$AA@ 00430f74     libucrt:get_qualified_locale.obj
 0002:00006f98       ??_C@_1CA@OBNMCGFO@?$AAs?$AAw?$AAe?$AAd?$AAi?$AAs?$AAh?$AA?9?$AAf?$AAi?$AAn?$AAl?$AAa?$AAn?$AAd?$AA?$AA@ 00430f98     libucrt:get_qualified_locale.obj
 0002:00006fb8       ??_C@_1M@PIPDDPPI@?$AAs?$AAw?$AAi?$AAs?$AAs?$AA?$AA@ 00430fb8     libucrt:get_qualified_locale.obj
 0002:00006fc4       ??_C@_15GMFIMNFM@?$AAu?$AAs?$AA?$AA@ 00430fc4     libucrt:get_qualified_locale.obj
 0002:00006fcc       ??_C@_17HAEBFAGL@?$AAu?$AAs?$AAa?$AA?$AA@ 00430fcc     libucrt:get_qualified_locale.obj
 0002:00006fd4       ??_C@_1BA@DPFJEPHB@?$AAa?$AAm?$AAe?$AAr?$AAi?$AAc?$AAa?$AA?$AA@ 00430fd4     libucrt:get_qualified_locale.obj
 0002:00006fe4       ??_C@_1BA@ELOGGFK@?$AAb?$AAr?$AAi?$AAt?$AAa?$AAi?$AAn?$AA?$AA@ 00430fe4     libucrt:get_qualified_locale.obj
 0002:00006ff4       ??_C@_1M@GHBGIGDA@?$AAc?$AAh?$AAi?$AAn?$AAa?$AA?$AA@ 00430ff4     libucrt:get_qualified_locale.obj
 0002:00007000       ??_C@_1M@NCHEJOPO@?$AAc?$AAz?$AAe?$AAc?$AAh?$AA?$AA@ 00431000     libucrt:get_qualified_locale.obj
 0002:0000700c       ??_C@_1BA@BKPAPBLA@?$AAe?$AAn?$AAg?$AAl?$AAa?$AAn?$AAd?$AA?$AA@ 0043100c     libucrt:get_qualified_locale.obj
 0002:0000701c       ??_C@_1BM@HKBCKIPC@?$AAg?$AAr?$AAe?$AAa?$AAt?$AA?5?$AAb?$AAr?$AAi?$AAt?$AAa?$AAi?$AAn?$AA?$AA@ 0043101c     libucrt:get_qualified_locale.obj
 0002:00007038       ??_C@_1BA@PPCHPGJB@?$AAh?$AAo?$AAl?$AAl?$AAa?$AAn?$AAd?$AA?$AA@ 00431038     libucrt:get_qualified_locale.obj
 0002:00007048       ??_C@_1BE@JBMPEGDG@?$AAh?$AAo?$AAn?$AAg?$AA?9?$AAk?$AAo?$AAn?$AAg?$AA?$AA@ 00431048     libucrt:get_qualified_locale.obj
 0002:0000705c       ??_C@_1BI@KOELBBPJ@?$AAn?$AAe?$AAw?$AA?9?$AAz?$AAe?$AAa?$AAl?$AAa?$AAn?$AAd?$AA?$AA@ 0043105c     libucrt:get_qualified_locale.obj
 0002:00007074       ??_C@_15HIEBHAIO@?$AAn?$AAz?$AA?$AA@ 00431074     libucrt:get_qualified_locale.obj
 0002:0000707c       ??_C@_1BC@CHBCPFPI@?$AAp?$AAr?$AA?5?$AAc?$AAh?$AAi?$AAn?$AAa?$AA?$AA@ 0043107c     libucrt:get_qualified_locale.obj
 0002:00007090       ??_C@_1BC@JAOIIFKD@?$AAp?$AAr?$AA?9?$AAc?$AAh?$AAi?$AAn?$AAa?$AA?$AA@ 00431090     libucrt:get_qualified_locale.obj
 0002:000070a4       ??_C@_1BI@BEHPPHKC@?$AAp?$AAu?$AAe?$AAr?$AAt?$AAo?$AA?9?$AAr?$AAi?$AAc?$AAo?$AA?$AA@ 004310a4     libucrt:get_qualified_locale.obj
 0002:000070bc       ??_C@_1O@PAEOFKDI@?$AAs?$AAl?$AAo?$AAv?$AAa?$AAk?$AA?$AA@ 004310bc     libucrt:get_qualified_locale.obj
 0002:000070cc       ??_C@_1BK@FIHMCKAM@?$AAs?$AAo?$AAu?$AAt?$AAh?$AA?5?$AAa?$AAf?$AAr?$AAi?$AAc?$AAa?$AA?$AA@ 004310cc     libucrt:get_qualified_locale.obj
 0002:000070e8       ??_C@_1BI@NAEOODKB@?$AAs?$AAo?$AAu?$AAt?$AAh?$AA?5?$AAk?$AAo?$AAr?$AAe?$AAa?$AA?$AA@ 004310e8     libucrt:get_qualified_locale.obj
 0002:00007100       ??_C@_1BK@FBDGGIFF@?$AAs?$AAo?$AAu?$AAt?$AAh?$AA?9?$AAa?$AAf?$AAr?$AAi?$AAc?$AAa?$AA?$AA@ 00431100     libucrt:get_qualified_locale.obj
 0002:0000711c       ??_C@_1BI@GHLEJDPK@?$AAs?$AAo?$AAu?$AAt?$AAh?$AA?9?$AAk?$AAo?$AAr?$AAe?$AAa?$AA?$AA@ 0043111c     libucrt:get_qualified_locale.obj
 0002:00007134       ??_C@_1CE@PLHLOMJF@?$AAt?$AAr?$AAi?$AAn?$AAi?$AAd?$AAa?$AAd?$AA?5?$AA?$CG?$AA?5?$AAt?$AAo?$AAb?$AAa?$AAg?$AAo?$AA?$AA@ 00431134     libucrt:get_qualified_locale.obj
 0002:00007158       ??_C@_1BO@MODIMHHI@?$AAu?$AAn?$AAi?$AAt?$AAe?$AAd?$AA?9?$AAk?$AAi?$AAn?$AAg?$AAd?$AAo?$AAm?$AA?$AA@ 00431158     libucrt:get_qualified_locale.obj
 0002:00007178       ??_C@_1BM@FFHJONBJ@?$AAu?$AAn?$AAi?$AAt?$AAe?$AAd?$AA?9?$AAs?$AAt?$AAa?$AAt?$AAe?$AAs?$AA?$AA@ 00431178     libucrt:get_qualified_locale.obj
 0002:00007198       ___acrt_rg_language        00431198     libucrt:get_qualified_locale.obj
 0002:000074a4       ___acrt_rg_language_count  004314a4     libucrt:get_qualified_locale.obj
 0002:000074a8       ___acrt_rg_country         004314a8     libucrt:get_qualified_locale.obj
 0002:000075bc       ___acrt_rg_country_count   004315bc     libucrt:get_qualified_locale.obj
 0002:000075c0       ??_C@_17DNCLJFIF@?$AAA?$AAC?$AAP?$AA?$AA@ 004315c0     libucrt:get_qualified_locale.obj
 0002:000075c8       ??_C@_17CIKBIHLH@?$AAO?$AAC?$AAP?$AA?$AA@ 004315c8     libucrt:get_qualified_locale.obj
 0002:000075d0       ___rglangidNotDefault      004315d0     libucrt:getqloc_downlevel.obj
 0002:000075e4       ??_C@_01GBGANLPD@0?$AA@    004315e4     libucrt:cfout.obj
 0002:000075e8       ??_C@_05DNEBIAHO@1?$CDINF?$AA@ 004315e8     libucrt:cfout.obj
 0002:000075f0       ??_C@_06IMKFLFPG@1?$CDQNAN?$AA@ 004315f0     libucrt:cfout.obj
 0002:000075f8       ??_C@_06PGGFOGJG@1?$CDSNAN?$AA@ 004315f8     libucrt:cfout.obj
 0002:00007600       ??_C@_05PHHOCPM@1?$CDIND?$AA@ 00431600     libucrt:cfout.obj
 0002:00008448       ___acrt_pow_rcp_t1         00432448     libucrt:pow_tables.obj
 0002:00008860       ___acrt_pow_log2_t1        00432860     libucrt:pow_tables.obj
 0002:00009070       ___acrt_pow_rcp_t2         00433070     libucrt:pow_tables.obj
 0002:00009480       ___acrt_pow_log2_t2        00433480     libucrt:pow_tables.obj
 0002:00009c90       ___acrt_pow_rcp_t3         00433c90     libucrt:pow_tables.obj
 0002:0000a4a0       ___acrt_pow_log2_t3        004344a0     libucrt:pow_tables.obj
 0002:0000b4b0       ___acrt_pow_clv            004354b0     libucrt:pow_tables.obj
 0002:0000b4d0       ___acrt_pow_exp2_tbl       004354d0     libucrt:pow_tables.obj
 0002:0000bd28       ??_C@_1BA@BALFACEM@?$AAC?$AAO?$AAN?$AAO?$AAU?$AAT?$AA$?$AA?$AA@ 00435d28     libucrt:initcon.obj
 0002:0000be40       ___acrt_log10_table_t      00435e40     libucrt:log10_tables.obj
 0002:0000c250       ___acrt_log10_table_cb     00436250     libucrt:log10_tables.obj
 0002:0000c6b8       __load_config_used         004366b8     LIBCMT:loadcfg.obj
 0002:0000c714       __tls_used                 00436714     LIBCMT:tlssup.obj
 0002:0000c72c       ??_R4exception@std@@6B@    0043672c     ObfuscateStrings.cpp.obj
 0002:0000c740       ??_R3exception@std@@8      00436740     ObfuscateStrings.cpp.obj
 0002:0000c750       ??_R2exception@std@@8      00436750     ObfuscateStrings.cpp.obj
 0002:0000c758       ??_R1A@?0A@EA@exception@std@@8 00436758     ObfuscateStrings.cpp.obj
 0002:0000c774       ??_R4runtime_error@std@@6B@ 00436774     ObfuscateStrings.cpp.obj
 0002:0000c788       ??_R3runtime_error@std@@8  00436788     ObfuscateStrings.cpp.obj
 0002:0000c798       ??_R2runtime_error@std@@8  00436798     ObfuscateStrings.cpp.obj
 0002:0000c7a4       ??_R1A@?0A@EA@runtime_error@std@@8 004367a4     ObfuscateStrings.cpp.obj
 0002:0000c7c0       ??_R4bad_cast@std@@6B@     004367c0     ObfuscateStrings.cpp.obj
 0002:0000c7d4       ??_R3bad_cast@std@@8       004367d4     ObfuscateStrings.cpp.obj
 0002:0000c7e4       ??_R2bad_cast@std@@8       004367e4     ObfuscateStrings.cpp.obj
 0002:0000c7f0       ??_R1A@?0A@EA@bad_cast@std@@8 004367f0     ObfuscateStrings.cpp.obj
 0002:0000c80c       ??_R4_Facet_base@std@@6B@  0043680c     ObfuscateStrings.cpp.obj
 0002:0000c820       ??_R3_Facet_base@std@@8    00436820     ObfuscateStrings.cpp.obj
 0002:0000c830       ??_R2_Facet_base@std@@8    00436830     ObfuscateStrings.cpp.obj
 0002:0000c838       ??_R1A@?0A@EA@_Facet_base@std@@8 00436838     ObfuscateStrings.cpp.obj
 0002:0000c854       ??_R1A@?0A@EA@facet@locale@std@@8 00436854     ObfuscateStrings.cpp.obj
 0002:0000c870       ??_R3facet@locale@std@@8   00436870     ObfuscateStrings.cpp.obj
 0002:0000c880       ??_R2facet@locale@std@@8   00436880     ObfuscateStrings.cpp.obj
 0002:0000c890       ??_R13?0A@EA@_Crt_new_delete@std@@8 00436890     ObfuscateStrings.cpp.obj
 0002:0000c8ac       ??_R3_Crt_new_delete@std@@8 004368ac     ObfuscateStrings.cpp.obj
 0002:0000c8bc       ??_R2_Crt_new_delete@std@@8 004368bc     ObfuscateStrings.cpp.obj
 0002:0000c8c4       ??_R1A@?0A@EA@_Crt_new_delete@std@@8 004368c4     ObfuscateStrings.cpp.obj
 0002:0000c8e0       ??_R3ctype_base@std@@8     004368e0     ObfuscateStrings.cpp.obj
 0002:0000c8f0       ??_R2ctype_base@std@@8     004368f0     ObfuscateStrings.cpp.obj
 0002:0000c904       ??_R1A@?0A@EA@ctype_base@std@@8 00436904     ObfuscateStrings.cpp.obj
 0002:0000c920       ??_R4?$ctype@D@std@@6B@    00436920     ObfuscateStrings.cpp.obj
 0002:0000c934       ??_R3?$ctype@D@std@@8      00436934     ObfuscateStrings.cpp.obj
 0002:0000c944       ??_R2?$ctype@D@std@@8      00436944     ObfuscateStrings.cpp.obj
 0002:0000c95c       ??_R1A@?0A@EA@?$ctype@D@std@@8 0043695c     ObfuscateStrings.cpp.obj
 0002:0000c978       ??_R4?$ctype@_W@std@@6B@   00436978     ObfuscateStrings.cpp.obj
 0002:0000c98c       ??_R3?$ctype@_W@std@@8     0043698c     ObfuscateStrings.cpp.obj
 0002:0000c99c       ??_R2?$ctype@_W@std@@8     0043699c     ObfuscateStrings.cpp.obj
 0002:0000c9b4       ??_R1A@?0A@EA@?$ctype@_W@std@@8 004369b4     ObfuscateStrings.cpp.obj
 0002:0000c9d0       ??_R4error_category@std@@6B@ 004369d0     ObfuscateStrings.cpp.obj
 0002:0000c9e4       ??_R3error_category@std@@8 004369e4     ObfuscateStrings.cpp.obj
 0002:0000c9f4       ??_R2error_category@std@@8 004369f4     ObfuscateStrings.cpp.obj
 0002:0000c9fc       ??_R1A@?0A@EA@error_category@std@@8 004369fc     ObfuscateStrings.cpp.obj
 0002:0000ca18       ??_R4_System_error@std@@6B@ 00436a18     ObfuscateStrings.cpp.obj
 0002:0000ca2c       ??_R3_System_error@std@@8  00436a2c     ObfuscateStrings.cpp.obj
 0002:0000ca3c       ??_R2_System_error@std@@8  00436a3c     ObfuscateStrings.cpp.obj
 0002:0000ca4c       ??_R1A@?0A@EA@_System_error@std@@8 00436a4c     ObfuscateStrings.cpp.obj
 0002:0000ca68       ??_R4system_error@std@@6B@ 00436a68     ObfuscateStrings.cpp.obj
 0002:0000ca7c       ??_R3system_error@std@@8   00436a7c     ObfuscateStrings.cpp.obj
 0002:0000ca8c       ??_R2system_error@std@@8   00436a8c     ObfuscateStrings.cpp.obj
 0002:0000caa0       ??_R1A@?0A@EA@system_error@std@@8 00436aa0     ObfuscateStrings.cpp.obj
 0002:0000cabc       ??_R3_Generic_error_category@std@@8 00436abc     ObfuscateStrings.cpp.obj
 0002:0000cacc       ??_R2_Generic_error_category@std@@8 00436acc     ObfuscateStrings.cpp.obj
 0002:0000cad8       ??_R1A@?0A@EA@_Generic_error_category@std@@8 00436ad8     ObfuscateStrings.cpp.obj
 0002:0000caf4       ??_R4_Iostream_error_category@std@@6B@ 00436af4     ObfuscateStrings.cpp.obj
 0002:0000cb08       ??_R3_Iostream_error_category@std@@8 00436b08     ObfuscateStrings.cpp.obj
 0002:0000cb18       ??_R2_Iostream_error_category@std@@8 00436b18     ObfuscateStrings.cpp.obj
 0002:0000cb28       ??_R1A@?0A@EA@_Iostream_error_category@std@@8 00436b28     ObfuscateStrings.cpp.obj
 0002:0000cb44       ??_R4failure@ios_base@std@@6B@ 00436b44     ObfuscateStrings.cpp.obj
 0002:0000cb58       ??_R3failure@ios_base@std@@8 00436b58     ObfuscateStrings.cpp.obj
 0002:0000cb68       ??_R2failure@ios_base@std@@8 00436b68     ObfuscateStrings.cpp.obj
 0002:0000cb80       ??_R1A@?0A@EA@failure@ios_base@std@@8 00436b80     ObfuscateStrings.cpp.obj
 0002:0000cb9c       ??_R4?$num_put@DV?$ostreambuf_iterator@DU?$char_traits@D@std@@@std@@@std@@6B@ 00436b9c     ObfuscateStrings.cpp.obj
 0002:0000cbb0       ??_R3?$num_put@DV?$ostreambuf_iterator@DU?$char_traits@D@std@@@std@@@std@@8 00436bb0     ObfuscateStrings.cpp.obj
 0002:0000cbc0       ??_R2?$num_put@DV?$ostreambuf_iterator@DU?$char_traits@D@std@@@std@@@std@@8 00436bc0     ObfuscateStrings.cpp.obj
 0002:0000cbd4       ??_R1A@?0A@EA@?$num_put@DV?$ostreambuf_iterator@DU?$char_traits@D@std@@@std@@@std@@8 00436bd4     ObfuscateStrings.cpp.obj
 0002:0000cbf0       ??_R4?$numpunct@D@std@@6B@ 00436bf0     ObfuscateStrings.cpp.obj
 0002:0000cc04       ??_R3?$numpunct@D@std@@8   00436c04     ObfuscateStrings.cpp.obj
 0002:0000cc14       ??_R2?$numpunct@D@std@@8   00436c14     ObfuscateStrings.cpp.obj
 0002:0000cc28       ??_R1A@?0A@EA@?$numpunct@D@std@@8 00436c28     ObfuscateStrings.cpp.obj
 0002:0000cc44       ??_R4ios_base@std@@6B@     00436c44     StringScanner.cpp.obj
 0002:0000cc58       ??_R3ios_base@std@@8       00436c58     StringScanner.cpp.obj
 0002:0000cc68       ??_R2ios_base@std@@8       00436c68     StringScanner.cpp.obj
 0002:0000cc74       ??_R1A@?0A@EA@ios_base@std@@8 00436c74     StringScanner.cpp.obj
 0002:0000cc90       ??_R17?0A@EA@?$_Iosb@H@std@@8 00436c90     StringScanner.cpp.obj
 0002:0000ccac       ??_R3?$_Iosb@H@std@@8      00436cac     StringScanner.cpp.obj
 0002:0000ccbc       ??_R2?$_Iosb@H@std@@8      00436cbc     StringScanner.cpp.obj
 0002:0000ccc4       ??_R1A@?0A@EA@?$_Iosb@H@std@@8 00436cc4     StringScanner.cpp.obj
 0002:0000cce0       ??_R4?$basic_ios@DU?$char_traits@D@std@@@std@@6B@ 00436ce0     StringScanner.cpp.obj
 0002:0000ccf4       ??_R3?$basic_ios@DU?$char_traits@D@std@@@std@@8 00436cf4     StringScanner.cpp.obj
 0002:0000cd04       ??_R2?$basic_ios@DU?$char_traits@D@std@@@std@@8 00436d04     StringScanner.cpp.obj
 0002:0000cd14       ??_R1A@?0A@EA@?$basic_ios@DU?$char_traits@D@std@@@std@@8 00436d14     StringScanner.cpp.obj
 0002:0000cd30       ??_R4?$basic_streambuf@DU?$char_traits@D@std@@@std@@6B@ 00436d30     StringScanner.cpp.obj
 0002:0000cd44       ??_R3?$basic_streambuf@DU?$char_traits@D@std@@@std@@8 00436d44     StringScanner.cpp.obj
 0002:0000cd54       ??_R2?$basic_streambuf@DU?$char_traits@D@std@@@std@@8 00436d54     StringScanner.cpp.obj
 0002:0000cd5c       ??_R1A@?0A@EA@?$basic_streambuf@DU?$char_traits@D@std@@@std@@8 00436d5c     StringScanner.cpp.obj
 0002:0000cd78       ??_R4?$basic_istream@DU?$char_traits@D@std@@@std@@6B@ 00436d78     StringScanner.cpp.obj
 0002:0000cd8c       ??_R3?$basic_istream@DU?$char_traits@D@std@@@std@@8 00436d8c     StringScanner.cpp.obj
 0002:0000cd9c       ??_R2?$basic_istream@DU?$char_traits@D@std@@@std@@8 00436d9c     StringScanner.cpp.obj
 0002:0000cdb0       ??_R1A@?0A@EA@?$basic_istream@DU?$char_traits@D@std@@@std@@8 00436db0     StringScanner.cpp.obj
 0002:0000cdcc       ??_R1A@A@3FA@?$basic_ios@DU?$char_traits@D@std@@@std@@8 00436dcc     StringScanner.cpp.obj
 0002:0000cde8       ??_R1A@A@3EA@ios_base@std@@8 00436de8     StringScanner.cpp.obj
 0002:0000ce04       ??_R17A@3EA@?$_Iosb@H@std@@8 00436e04     StringScanner.cpp.obj
 0002:0000ce20       ??_R4?$basic_ostream@DU?$char_traits@D@std@@@std@@6B@ 00436e20     StringScanner.cpp.obj
 0002:0000ce34       ??_R3?$basic_ostream@DU?$char_traits@D@std@@@std@@8 00436e34     StringScanner.cpp.obj
 0002:0000ce44       ??_R2?$basic_ostream@DU?$char_traits@D@std@@@std@@8 00436e44     StringScanner.cpp.obj
 0002:0000ce58       ??_R1A@?0A@EA@?$basic_ostream@DU?$char_traits@D@std@@@std@@8 00436e58     StringScanner.cpp.obj
 0002:0000ce74       ??_R4?$basic_iostream@DU?$char_traits@D@std@@@std@@6B@ 00436e74     StringScanner.cpp.obj
 0002:0000ce88       ??_R3?$basic_iostream@DU?$char_traits@D@std@@@std@@8 00436e88     StringScanner.cpp.obj
 0002:0000ce98       ??_R2?$basic_iostream@DU?$char_traits@D@std@@@std@@8 00436e98     StringScanner.cpp.obj
 0002:0000cec0       ??_R1A@?0A@EA@?$basic_iostream@DU?$char_traits@D@std@@@std@@8 00436ec0     StringScanner.cpp.obj
 0002:0000cedc       ??_R1BA@?0A@EA@?$basic_ostream@DU?$char_traits@D@std@@@std@@8 00436edc     StringScanner.cpp.obj
 0002:0000cef8       ??_R4?$basic_filebuf@DU?$char_traits@D@std@@@std@@6B@ 00436ef8     StringScanner.cpp.obj
 0002:0000cf0c       ??_R3?$basic_filebuf@DU?$char_traits@D@std@@@std@@8 00436f0c     StringScanner.cpp.obj
 0002:0000cf1c       ??_R2?$basic_filebuf@DU?$char_traits@D@std@@@std@@8 00436f1c     StringScanner.cpp.obj
 0002:0000cf28       ??_R1A@?0A@EA@?$basic_filebuf@DU?$char_traits@D@std@@@std@@8 00436f28     StringScanner.cpp.obj
 0002:0000cf44       ??_R4?$basic_fstream@DU?$char_traits@D@std@@@std@@6B@ 00436f44     StringScanner.cpp.obj
 0002:0000cf58       ??_R3?$basic_fstream@DU?$char_traits@D@std@@@std@@8 00436f58     StringScanner.cpp.obj
 0002:0000cf68       ??_R2?$basic_fstream@DU?$char_traits@D@std@@@std@@8 00436f68     StringScanner.cpp.obj
 0002:0000cf94       ??_R1A@?0A@EA@?$basic_fstream@DU?$char_traits@D@std@@@std@@8 00436f94     StringScanner.cpp.obj
 0002:0000cfb0       ??_R3codecvt_base@std@@8   00436fb0     StringScanner.cpp.obj
 0002:0000cfc0       ??_R2codecvt_base@std@@8   00436fc0     StringScanner.cpp.obj
 0002:0000cfd4       ??_R1A@?0A@EA@codecvt_base@std@@8 00436fd4     StringScanner.cpp.obj
 0002:0000cff0       ??_R4?$codecvt@DDU_Mbstatet@@@std@@6B@ 00436ff0     StringScanner.cpp.obj
 0002:0000d004       ??_R3?$codecvt@DDU_Mbstatet@@@std@@8 00437004     StringScanner.cpp.obj
 0002:0000d014       ??_R2?$codecvt@DDU_Mbstatet@@@std@@8 00437014     StringScanner.cpp.obj
 0002:0000d02c       ??_R1A@?0A@EA@?$codecvt@DDU_Mbstatet@@@std@@8 0043702c     StringScanner.cpp.obj
 0002:0000d048       ??_R4bad_alloc@std@@6B@    00437048     libcpmt:xthrow.obj
 0002:0000d05c       ??_R3bad_alloc@std@@8      0043705c     libcpmt:xthrow.obj
 0002:0000d06c       ??_R2bad_alloc@std@@8      0043706c     libcpmt:xthrow.obj
 0002:0000d078       ??_R1A@?0A@EA@bad_alloc@std@@8 00437078     libcpmt:xthrow.obj
 0002:0000d094       ??_R4logic_error@std@@6B@  00437094     libcpmt:xthrow.obj
 0002:0000d0a8       ??_R3logic_error@std@@8    004370a8     libcpmt:xthrow.obj
 0002:0000d0b8       ??_R2logic_error@std@@8    004370b8     libcpmt:xthrow.obj
 0002:0000d0c4       ??_R1A@?0A@EA@logic_error@std@@8 004370c4     libcpmt:xthrow.obj
 0002:0000d0e0       ??_R4length_error@std@@6B@ 004370e0     libcpmt:xthrow.obj
 0002:0000d0f4       ??_R3length_error@std@@8   004370f4     libcpmt:xthrow.obj
 0002:0000d104       ??_R2length_error@std@@8   00437104     libcpmt:xthrow.obj
 0002:0000d114       ??_R1A@?0A@EA@length_error@std@@8 00437114     libcpmt:xthrow.obj
 0002:0000d130       ??_R4out_of_range@std@@6B@ 00437130     libcpmt:xthrow.obj
 0002:0000d144       ??_R3out_of_range@std@@8   00437144     libcpmt:xthrow.obj
 0002:0000d154       ??_R2out_of_range@std@@8   00437154     libcpmt:xthrow.obj
 0002:0000d164       ??_R1A@?0A@EA@out_of_range@std@@8 00437164     libcpmt:xthrow.obj
 0002:0000d180       ??_R4_Locimp@locale@std@@6B@ 00437180     libcpmt:locale0.obj
 0002:0000d194       ??_R3_Locimp@locale@std@@8 00437194     libcpmt:locale0.obj
 0002:0000d1a4       ??_R2_Locimp@locale@std@@8 004371a4     libcpmt:locale0.obj
 0002:0000d1b8       ??_R1A@?0A@EA@_Locimp@locale@std@@8 004371b8     libcpmt:locale0.obj
 0002:0000d1d4       ??_R4?$basic_ios@_WU?$char_traits@_W@std@@@std@@6B@ 004371d4     libcpmt:wcout.obj
 0002:0000d1e8       ??_R3?$basic_ios@_WU?$char_traits@_W@std@@@std@@8 004371e8     libcpmt:wcout.obj
 0002:0000d1f8       ??_R2?$basic_ios@_WU?$char_traits@_W@std@@@std@@8 004371f8     libcpmt:wcout.obj
 0002:0000d208       ??_R1A@?0A@EA@?$basic_ios@_WU?$char_traits@_W@std@@@std@@8 00437208     libcpmt:wcout.obj
 0002:0000d224       ??_R4?$basic_streambuf@_WU?$char_traits@_W@std@@@std@@6B@ 00437224     libcpmt:wcout.obj
 0002:0000d238       ??_R3?$basic_streambuf@_WU?$char_traits@_W@std@@@std@@8 00437238     libcpmt:wcout.obj
 0002:0000d248       ??_R2?$basic_streambuf@_WU?$char_traits@_W@std@@@std@@8 00437248     libcpmt:wcout.obj
 0002:0000d250       ??_R1A@?0A@EA@?$basic_streambuf@_WU?$char_traits@_W@std@@@std@@8 00437250     libcpmt:wcout.obj
 0002:0000d26c       ??_R1A@A@3FA@?$basic_ios@_WU?$char_traits@_W@std@@@std@@8 0043726c     libcpmt:wcout.obj
 0002:0000d288       ??_R4?$basic_ostream@_WU?$char_traits@_W@std@@@std@@6B@ 00437288     libcpmt:wcout.obj
 0002:0000d29c       ??_R3?$basic_ostream@_WU?$char_traits@_W@std@@@std@@8 0043729c     libcpmt:wcout.obj
 0002:0000d2ac       ??_R2?$basic_ostream@_WU?$char_traits@_W@std@@@std@@8 004372ac     libcpmt:wcout.obj
 0002:0000d2c0       ??_R1A@?0A@EA@?$basic_ostream@_WU?$char_traits@_W@std@@@std@@8 004372c0     libcpmt:wcout.obj
 0002:0000d2dc       ??_R4?$basic_filebuf@_WU?$char_traits@_W@std@@@std@@6B@ 004372dc     libcpmt:wcout.obj
 0002:0000d2f0       ??_R3?$basic_filebuf@_WU?$char_traits@_W@std@@@std@@8 004372f0     libcpmt:wcout.obj
 0002:0000d300       ??_R2?$basic_filebuf@_WU?$char_traits@_W@std@@@std@@8 00437300     libcpmt:wcout.obj
 0002:0000d30c       ??_R1A@?0A@EA@?$basic_filebuf@_WU?$char_traits@_W@std@@@std@@8 0043730c     libcpmt:wcout.obj
 0002:0000d328       ??_R4?$codecvt@_WDU_Mbstatet@@@std@@6B@ 00437328     libcpmt:wcout.obj
 0002:0000d33c       ??_R3?$codecvt@_WDU_Mbstatet@@@std@@8 0043733c     libcpmt:wcout.obj
 0002:0000d34c       ??_R2?$codecvt@_WDU_Mbstatet@@@std@@8 0043734c     libcpmt:wcout.obj
 0002:0000d364       ??_R1A@?0A@EA@?$codecvt@_WDU_Mbstatet@@@std@@8 00437364     libcpmt:wcout.obj
 0002:0000d380       ??_R4type_info@@6B@        00437380     LIBCMT:std_type_info_static.obj
 0002:0000d394       ??_R3type_info@@8          00437394     LIBCMT:std_type_info_static.obj
 0002:0000d3a4       ??_R2type_info@@8          004373a4     LIBCMT:std_type_info_static.obj
 0002:0000d3ac       ??_R1A@?0A@EA@type_info@@8 004373ac     LIBCMT:std_type_info_static.obj
 0002:0000d3c8       ??_R4bad_array_new_length@std@@6B@ 004373c8     LIBCMT:throw_bad_alloc.obj
 0002:0000d3dc       ??_R3bad_array_new_length@std@@8 004373dc     LIBCMT:throw_bad_alloc.obj
 0002:0000d3ec       ??_R2bad_array_new_length@std@@8 004373ec     LIBCMT:throw_bad_alloc.obj
 0002:0000d3fc       ??_R1A@?0A@EA@bad_array_new_length@std@@8 004373fc     LIBCMT:throw_bad_alloc.obj
 0002:0000d418       ??_R4bad_exception@std@@6B@ 00437418     libvcruntime:frame.obj
 0002:0000d42c       ??_R3bad_exception@std@@8  0043742c     libvcruntime:frame.obj
 0002:0000d43c       ??_R2bad_exception@std@@8  0043743c     libvcruntime:frame.obj
 0002:0000d448       ??_R1A@?0A@EA@bad_exception@std@@8 00437448     libvcruntime:frame.obj
 0002:0000d470       ___safe_se_handler_table   00437470     <linker-defined>
 0002:0000d96c       ___rtc_iaa                 0043796c     LIBCMT:_initsect_.obj
 0002:0000d970       ___rtc_izz                 00437970     LIBCMT:_initsect_.obj
 0002:0000d974       ___rtc_taa                 00437974     LIBCMT:_initsect_.obj
 0002:0000d978       ___rtc_tzz                 00437978     LIBCMT:_initsect_.obj
 0002:0000e080       __TI2?AVruntime_error@std@@ 00438080     ObfuscateStrings.cpp.obj
 0002:0000e090       __CTA2?AVruntime_error@std@@ 00438090     ObfuscateStrings.cpp.obj
 0002:0000e09c       __CT??_R0?AVruntime_error@std@@@8??0runtime_error@std@@QAE@ABV01@@Z12 0043809c     ObfuscateStrings.cpp.obj
 0002:0000e0b8       __CT??_R0?AVexception@std@@@8??0exception@std@@QAE@ABV01@@Z12 004380b8     ObfuscateStrings.cpp.obj
 0002:0000e0d4       __TI5?AVfailure@ios_base@std@@ 004380d4     ObfuscateStrings.cpp.obj
 0002:0000e0e4       __CTA5?AVfailure@ios_base@std@@ 004380e4     ObfuscateStrings.cpp.obj
 0002:0000e0fc       __CT??_R0?AVfailure@ios_base@std@@@8??0failure@ios_base@std@@QAE@ABV012@@Z20 004380fc     ObfuscateStrings.cpp.obj
 0002:0000e118       __CT??_R0?AVsystem_error@std@@@8??0system_error@std@@QAE@ABV01@@Z20 00438118     ObfuscateStrings.cpp.obj
 0002:0000e134       __CT??_R0?AV_System_error@std@@@8??0_System_error@std@@QAE@ABV01@@Z20 00438134     ObfuscateStrings.cpp.obj
 0002:0000e150       __TI2?AVbad_cast@std@@     00438150     ObfuscateStrings.cpp.obj
 0002:0000e160       __CTA2?AVbad_cast@std@@    00438160     ObfuscateStrings.cpp.obj
 0002:0000e16c       __CT??_R0?AVbad_cast@std@@@8??0bad_cast@std@@QAE@ABV01@@Z12 0043816c     ObfuscateStrings.cpp.obj
 0002:0000e698       __TI2?AVbad_alloc@std@@    00438698     libcpmt:xthrow.obj
 0002:0000e6a8       __CTA2?AVbad_alloc@std@@   004386a8     libcpmt:xthrow.obj
 0002:0000e6b4       __CT??_R0?AVbad_alloc@std@@@8??0bad_alloc@std@@QAE@ABV01@@Z12 004386b4     libcpmt:xthrow.obj
 0002:0000e6d0       __CT??_R0?AVlogic_error@std@@@8??0logic_error@std@@QAE@ABV01@@Z12 004386d0     libcpmt:xthrow.obj
 0002:0000e6ec       __TI3?AVlength_error@std@@ 004386ec     libcpmt:xthrow.obj
 0002:0000e6fc       __CTA3?AVlength_error@std@@ 004386fc     libcpmt:xthrow.obj
 0002:0000e70c       __CT??_R0?AVlength_error@std@@@8??0length_error@std@@QAE@ABV01@@Z12 0043870c     libcpmt:xthrow.obj
 0002:0000e728       __TI3?AVout_of_range@std@@ 00438728     libcpmt:xthrow.obj
 0002:0000e738       __CTA3?AVout_of_range@std@@ 00438738     libcpmt:xthrow.obj
 0002:0000e748       __CT??_R0?AVout_of_range@std@@@8??0out_of_range@std@@QAE@ABV01@@Z12 00438748     libcpmt:xthrow.obj
 0002:0000e9b4       __TI3?AVbad_array_new_length@std@@ 004389b4     LIBCMT:throw_bad_alloc.obj
 0002:0000e9c4       __CTA3?AVbad_array_new_length@std@@ 004389c4     LIBCMT:throw_bad_alloc.obj
 0002:0000e9d4       __CT??_R0?AVbad_array_new_length@std@@@8??0bad_array_new_length@std@@QAE@ABV01@@Z12 004389d4     LIBCMT:throw_bad_alloc.obj
 0002:0000eaf4       __TI2?AVbad_exception@std@@ 00438af4     libvcruntime:frame.obj
 0002:0000eb04       __CTA2?AVbad_exception@std@@ 00438b04     libvcruntime:frame.obj
 0002:0000eb10       __CT??_R0?AVbad_exception@std@@@8??0bad_exception@std@@QAE@ABV01@@Z12 00438b10     libvcruntime:frame.obj
 0002:0000f12c       __IMPORT_DESCRIPTOR_SHELL32 0043912c     Shell32:SHELL32.dll
 0002:0000f140       __IMPORT_DESCRIPTOR_KERNEL32 00439140     kernel32:KERNEL32.dll
 0002:0000f154       __NULL_IMPORT_DESCRIPTOR   00439154     Shell32:SHELL32.dll
 0003:00000004       ?_Sync@ios_base@std@@0_NA  0043a004     libcpmt:ios.obj
 0003:00000010       ?_PJP_CPP_Copyright@@3PADA 0043a010     libcpmt:iosptrs.obj
 0003:00000064       ___scrt_native_dllmain_reason 0043a064     LIBCMT:utility.obj
 0003:00000068       __Init_global_epoch        0043a068     LIBCMT:thread_safe_statics.obj
 0003:0000006c       ___security_cookie_complement 0043a06c     LIBCMT:gs_cookie.obj
 0003:00000070       ___security_cookie         0043a070     LIBCMT:gs_cookie.obj
 0003:00000074       __fltused                  0043a074     LIBCMT:fltused.obj
 0003:00000080       ___isa_enabled             0043a080     LIBCMT:_cpu_disp_.obj
 0003:00000090       ___scrt_default_matherr    0043a090     LIBCMT:matherr.obj
 0003:000000b0       __NLG_Destination          0043a0b0     libvcruntime:_exsup_.obj
 0003:000000c0       ___acrt_lconv_static_decimal 0043a0c0     libucrt:localeconv.obj
 0003:000000c4       ___acrt_lconv_static_W_decimal 0043a0c4     libucrt:localeconv.obj
 0003:000000c8       ___acrt_lconv_c            0043a0c8     libucrt:localeconv.obj
 0003:00000118       ___acrt_lconv              0043a118     libucrt:localeconv.obj
 0003:00000128       __iob                      0043a128     libucrt:_file.obj
 0003:000001d0       __pctype                   0043a1d0     libucrt:ctype.obj
 0003:000001d4       __pwctype                  0043a1d4     libucrt:ctype.obj
 0003:000001d8       ___abort_behavior          0043a1d8     libucrt:abort.obj
 0003:000001ec       ___mb_cur_max              0043a1ec     libucrt:nlsdata.obj
 0003:000001f0       ___acrt_initial_locale_data 0043a1f0     libucrt:nlsdata.obj
 0003:000002a8       ___acrt_initial_locale_pointers 0043a2a8     libucrt:nlsdata.obj
 0003:000002b0       ___acrt_wide_c_locale_string 0043a2b0     libucrt:nlsdata.obj
 0003:000002b8       ___badioinfo               0043a2b8     libucrt:ioinit.obj
 0003:000002e8       ___globallocalestatus      0043a2e8     libucrt:glstatus.obj
 0003:00000678       ___acrt_initial_multibyte_data 0043a678     libucrt:mbctype.obj
 0003:00000898       __lookuptrailbytes         0043a898     libucrt:read.obj
 0003:000009a0       ___dcrt_lowio_console_output_handle 0043a9a0     libucrt:initcon.obj
 0003:000009b0       ??_R0?AVruntime_error@std@@@8 0043a9b0     ObfuscateStrings.cpp.obj
 0003:000009d0       ??_R0?AVexception@std@@@8  0043a9d0     ObfuscateStrings.cpp.obj
 0003:000009ec       ??_R0?AVfailure@ios_base@std@@@8 0043a9ec     ObfuscateStrings.cpp.obj
 0003:00000a10       ??_R0?AVsystem_error@std@@@8 0043aa10     ObfuscateStrings.cpp.obj
 0003:00000a30       ??_R0?AV_System_error@std@@@8 0043aa30     ObfuscateStrings.cpp.obj
 0003:00000a50       ??_R0?AVbad_cast@std@@@8   0043aa50     ObfuscateStrings.cpp.obj
 0003:00000a6c       ??_R0?AV_Facet_base@std@@@8 0043aa6c     ObfuscateStrings.cpp.obj
 0003:00000a8c       ??_R0?AVfacet@locale@std@@@8 0043aa8c     ObfuscateStrings.cpp.obj
 0003:00000aac       ??_R0?AU_Crt_new_delete@std@@@8 0043aaac     ObfuscateStrings.cpp.obj
 0003:00000ad0       ??_R0?AUctype_base@std@@@8 0043aad0     ObfuscateStrings.cpp.obj
 0003:00000af0       ??_R0?AV?$ctype@D@std@@@8  0043aaf0     ObfuscateStrings.cpp.obj
 0003:00000b0c       ??_R0?AV?$ctype@_W@std@@@8 0043ab0c     ObfuscateStrings.cpp.obj
 0003:00000b2c       ??_R0?AVerror_category@std@@@8 0043ab2c     ObfuscateStrings.cpp.obj
 0003:00000b50       ??_R0?AV_Generic_error_category@std@@@8 0043ab50     ObfuscateStrings.cpp.obj
 0003:00000b7c       ??_R0?AV_Iostream_error_category@std@@@8 0043ab7c     ObfuscateStrings.cpp.obj
 0003:00000ba8       ??_R0?AV?$num_put@DV?$ostreambuf_iterator@DU?$char_traits@D@std@@@std@@@std@@@8 0043aba8     ObfuscateStrings.cpp.obj
 0003:00000bfc       ??_R0?AV?$numpunct@D@std@@@8 0043abfc     ObfuscateStrings.cpp.obj
 0003:00000c1c       ??_R0?AVios_base@std@@@8   0043ac1c     StringScanner.cpp.obj
 0003:00000c38       ??_R0?AV?$_Iosb@H@std@@@8  0043ac38     StringScanner.cpp.obj
 0003:00000c54       ??_R0?AV?$basic_ios@DU?$char_traits@D@std@@@std@@@8 0043ac54     StringScanner.cpp.obj
 0003:00000c8c       ??_R0?AV?$basic_streambuf@DU?$char_traits@D@std@@@std@@@8 0043ac8c     StringScanner.cpp.obj
 0003:00000cc8       ??_R0?AV?$basic_istream@DU?$char_traits@D@std@@@std@@@8 0043acc8     StringScanner.cpp.obj
 0003:00000d04       ??_R0?AV?$basic_ostream@DU?$char_traits@D@std@@@std@@@8 0043ad04     StringScanner.cpp.obj
 0003:00000d40       ??_R0?AV?$basic_iostream@DU?$char_traits@D@std@@@std@@@8 0043ad40     StringScanner.cpp.obj
 0003:00000d7c       ??_R0?AV?$basic_filebuf@DU?$char_traits@D@std@@@std@@@8 0043ad7c     StringScanner.cpp.obj
 0003:00000db8       ??_R0?AV?$basic_fstream@DU?$char_traits@D@std@@@std@@@8 0043adb8     StringScanner.cpp.obj
 0003:00000df4       ??_R0?AVcodecvt_base@std@@@8 0043adf4     StringScanner.cpp.obj
 0003:00000e14       ??_R0?AV?$codecvt@DDU_Mbstatet@@@std@@@8 0043ae14     StringScanner.cpp.obj
 0003:00000e40       ??_R0?AVbad_alloc@std@@@8  0043ae40     libcpmt:xthrow.obj
 0003:00000e5c       ??_R0?AVlogic_error@std@@@8 0043ae5c     libcpmt:xthrow.obj
 0003:00000e7c       ??_R0?AVlength_error@std@@@8 0043ae7c     libcpmt:xthrow.obj
 0003:00000e9c       ??_R0?AVout_of_range@std@@@8 0043ae9c     libcpmt:xthrow.obj
 0003:00000ebc       ??_R0?AV_Locimp@locale@std@@@8 0043aebc     libcpmt:locale0.obj
 0003:00000ee0       ??_R0?AV?$basic_ios@_WU?$char_traits@_W@std@@@std@@@8 0043aee0     libcpmt:wcout.obj
 0003:00000f18       ??_R0?AV?$basic_streambuf@_WU?$char_traits@_W@std@@@std@@@8 0043af18     libcpmt:wcout.obj
 0003:00000f58       ??_R0?AV?$basic_ostream@_WU?$char_traits@_W@std@@@std@@@8 0043af58     libcpmt:wcout.obj
 0003:00000f94       ??_R0?AV?$basic_filebuf@_WU?$char_traits@_W@std@@@std@@@8 0043af94     libcpmt:wcout.obj
 0003:00000fd0       ??_R0?AV?$codecvt@_WDU_Mbstatet@@@std@@@8 0043afd0     libcpmt:wcout.obj
 0003:00000ffc       ??_R0?AVtype_info@@@8      0043affc     LIBCMT:std_type_info_static.obj
 0003:00001014       ??_R0?AVbad_array_new_length@std@@@8 0043b014     LIBCMT:throw_bad_alloc.obj
 0003:0000103c       ??_R0?AVbad_exception@std@@@8 0043b03c     libvcruntime:frame.obj
 0003:00001060       ?_OptionsStorage@?1??__local_stdio_printf_options@@9@4_KA 0043b060     ObfuscateStrings.cpp.obj
 0003:00001068       ?id@?$num_put@DV?$ostreambuf_iterator@DU?$char_traits@D@std@@@std@@@std@@2V0locale@2@A 0043b068     ObfuscateStrings.cpp.obj
 0003:0000106c       ?id@?$numpunct@D@std@@2V0locale@2@A 0043b06c     ObfuscateStrings.cpp.obj
 0003:00001070       ?_Psave@?$_Facetptr@V?$ctype@D@std@@@std@@2PBVfacet@locale@2@B 0043b070     ObfuscateStrings.cpp.obj
 0003:00001074       ?_Static@?1???$_Immortalize@V_Iostream_error_category@std@@@std@@YAAAV_Iostream_error_category@1@XZ@4U?$_Immortalizer@V_Iostream_error_category@std@@@1@A 0043b074     ObfuscateStrings.cpp.obj
 0003:0000107c       ?$TSS0@?1???$_Immortalize@V_Iostream_error_category@std@@@std@@YAAAV_Iostream_error_category@1@XZ@4HA 0043b07c     ObfuscateStrings.cpp.obj
 0003:00001080       ?_Psave@?$_Facetptr@V?$num_put@DV?$ostreambuf_iterator@DU?$char_traits@D@std@@@std@@@std@@@std@@2PBVfacet@locale@2@B 0043b080     ObfuscateStrings.cpp.obj
 0003:00001084       ?_Psave@?$_Facetptr@V?$numpunct@D@std@@@std@@2PBVfacet@locale@2@B 0043b084     ObfuscateStrings.cpp.obj
 0003:00001088       ?_Psave@?$_Facetptr@V?$ctype@_W@std@@@std@@2PBVfacet@locale@2@B 0043b088     ObfuscateStrings.cpp.obj
 0003:000010ec       ?id@?$codecvt@DDU_Mbstatet@@@std@@2V0locale@2@A 0043b0ec     StringScanner.cpp.obj
 0003:000010f0       ?_Stinit@?1??_Init@?$basic_filebuf@DU?$char_traits@D@std@@@std@@IAEXPAU_iobuf@@W4_Initfl@23@@Z@4U_Mbstatet@@A 0043b0f0     StringScanner.cpp.obj
 0003:000010f8       ?_Psave@?$_Facetptr@V?$codecvt@DDU_Mbstatet@@@std@@@std@@2PBVfacet@locale@2@B 0043b0f8     StringScanner.cpp.obj
 0003:000011c8       ?_Id_cnt@id@locale@std@@0HA 0043b1c8     libcpmt:locale0.obj
 0003:000011cc       ?_Clocptr@_Locimp@locale@std@@0PAV123@A 0043b1cc     libcpmt:locale0.obj
 0003:000011d8       ?id@?$ctype@G@std@@2V0locale@2@A 0043b1d8     libcpmt:locale0.obj
 0003:000011dc       ?id@?$codecvt@_WDU_Mbstatet@@@std@@2V0locale@2@A 0043b1dc     libcpmt:locale0.obj
 0003:000011e0       ?id@?$codecvt@GDU_Mbstatet@@@std@@2V0locale@2@A 0043b1e0     libcpmt:locale0.obj
 0003:000011e4       ?id@?$ctype@_W@std@@2V0locale@2@A 0043b1e4     libcpmt:locale0.obj
 0003:000011e8       ?id@?$ctype@D@std@@2V0locale@2@A 0043b1e8     libcpmt:locale0.obj
 0003:00001200       ?cout@std@@3V?$basic_ostream@DU?$char_traits@D@std@@@1@A 0043b200     libcpmt:cout.obj
 0003:000012b0       ?wcout@std@@3V?$basic_ostream@_WU?$char_traits@_W@std@@@1@A 0043b2b0     libcpmt:wcout.obj
 0003:00001358       ?_Stinit@?1??_Init@?$basic_filebuf@_WU?$char_traits@_W@std@@@std@@IAEXPAU_iobuf@@W4_Initfl@23@@Z@4U_Mbstatet@@A 0043b358     libcpmt:wcout.obj
 0003:00001360       ?_Psave@?$_Facetptr@V?$codecvt@_WDU_Mbstatet@@@std@@@std@@2PBVfacet@locale@2@B 0043b360     libcpmt:wcout.obj
 0003:00001364       ?_Index@ios_base@std@@0HA  0043b364     libcpmt:ios.obj
 0003:0000139c       ?_Ptr_cin@std@@3PAV?$basic_istream@DU?$char_traits@D@std@@@1@A 0043b39c     libcpmt:iosptrs.obj
 0003:000013a0       ?_Ptr_cout@std@@3PAV?$basic_ostream@DU?$char_traits@D@std@@@1@A 0043b3a0     libcpmt:iosptrs.obj
 0003:000013a4       ?_Ptr_cerr@std@@3PAV?$basic_ostream@DU?$char_traits@D@std@@@1@A 0043b3a4     libcpmt:iosptrs.obj
 0003:000013a8       ?_Ptr_clog@std@@3PAV?$basic_ostream@DU?$char_traits@D@std@@@1@A 0043b3a8     libcpmt:iosptrs.obj
 0003:000013ac       ?_Ptr_wcin@std@@3PAV?$basic_istream@_WU?$char_traits@_W@std@@@1@A 0043b3ac     libcpmt:iosptrs.obj
 0003:000013b0       ?_Ptr_wcout@std@@3PAV?$basic_ostream@_WU?$char_traits@_W@std@@@1@A 0043b3b0     libcpmt:iosptrs.obj
 0003:000013b4       ?_Ptr_wcerr@std@@3PAV?$basic_ostream@_WU?$char_traits@_W@std@@@1@A 0043b3b4     libcpmt:iosptrs.obj
 0003:000013b8       ?_Ptr_wclog@std@@3PAV?$basic_ostream@_WU?$char_traits@_W@std@@@1@A 0043b3b8     libcpmt:iosptrs.obj
 0003:000013e8       ?id@?$num_get@DV?$istreambuf_iterator@DU?$char_traits@D@std@@@std@@@std@@2V0locale@2@A 0043b3e8     libcpmt:locale.obj
 0003:000013f0       ___encodedKERNEL32Functions 0043b3f0     libcpmt:winapisupp.obj
 0003:00001490       ?id@?$time_put@_WV?$ostreambuf_iterator@_WU?$char_traits@_W@std@@@std@@@std@@2V0locale@2@A 0043b490     libcpmt:wlocale.obj
 0003:00001494       ?id@?$num_get@_WV?$istreambuf_iterator@_WU?$char_traits@_W@std@@@std@@@std@@2V0locale@2@A 0043b494     libcpmt:wlocale.obj
 0003:00001498       ?id@?$num_put@_WV?$ostreambuf_iterator@_WU?$char_traits@_W@std@@@std@@@std@@2V0locale@2@A 0043b498     libcpmt:wlocale.obj
 0003:0000149c       ?id@?$numpunct@_W@std@@2V0locale@2@A 0043b49c     libcpmt:wlocale.obj
 0003:000014a0       ?id@?$collate@_W@std@@2V0locale@2@A 0043b4a0     libcpmt:wlocale.obj
 0003:000014a4       ?id@?$messages@_W@std@@2V0locale@2@A 0043b4a4     libcpmt:wlocale.obj
 0003:000014a8       ?id@?$money_get@_WV?$istreambuf_iterator@_WU?$char_traits@_W@std@@@std@@@std@@2V0locale@2@A 0043b4a8     libcpmt:wlocale.obj
 0003:000014ac       ?id@?$money_put@_WV?$ostreambuf_iterator@_WU?$char_traits@_W@std@@@std@@@std@@2V0locale@2@A 0043b4ac     libcpmt:wlocale.obj
 0003:000014b0       ?id@?$moneypunct@_W$0A@@std@@2V0locale@2@A 0043b4b0     libcpmt:wlocale.obj
 0003:000014b4       ?id@?$moneypunct@_W$00@std@@2V0locale@2@A 0043b4b4     libcpmt:wlocale.obj
 0003:000014b8       ?id@?$time_get@_WV?$istreambuf_iterator@_WU?$char_traits@_W@std@@@std@@@std@@2V0locale@2@A 0043b4b8     libcpmt:wlocale.obj
 0003:000014bc       ?id@?$num_get@GV?$istreambuf_iterator@GU?$char_traits@G@std@@@std@@@std@@2V0locale@2@A 0043b4bc     libcpmt:wlocale.obj
 0003:000014c0       ?id@?$num_put@GV?$ostreambuf_iterator@GU?$char_traits@G@std@@@std@@@std@@2V0locale@2@A 0043b4c0     libcpmt:wlocale.obj
 0003:000014c4       ?id@?$numpunct@G@std@@2V0locale@2@A 0043b4c4     libcpmt:wlocale.obj
 0003:000014c8       ?id@?$collate@G@std@@2V0locale@2@A 0043b4c8     libcpmt:wlocale.obj
 0003:000014cc       ?id@?$messages@G@std@@2V0locale@2@A 0043b4cc     libcpmt:wlocale.obj
 0003:000014d0       ?id@?$money_get@GV?$istreambuf_iterator@GU?$char_traits@G@std@@@std@@@std@@2V0locale@2@A 0043b4d0     libcpmt:wlocale.obj
 0003:000014d4       ?id@?$money_put@GV?$ostreambuf_iterator@GU?$char_traits@G@std@@@std@@@std@@2V0locale@2@A 0043b4d4     libcpmt:wlocale.obj
 0003:000014d8       ?id@?$moneypunct@G$0A@@std@@2V0locale@2@A 0043b4d8     libcpmt:wlocale.obj
 0003:000014dc       ?id@?$moneypunct@G$00@std@@2V0locale@2@A 0043b4dc     libcpmt:wlocale.obj
 0003:000014e0       ?id@?$time_get@GV?$istreambuf_iterator@GU?$char_traits@G@std@@@std@@@std@@2V0locale@2@A 0043b4e0     libcpmt:wlocale.obj
 0003:000014e4       ?id@?$time_put@GV?$ostreambuf_iterator@GU?$char_traits@G@std@@@std@@@std@@2V0locale@2@A 0043b4e4     libcpmt:wlocale.obj
 0003:000014e8       ?id@?$collate@D@std@@2V0locale@2@A 0043b4e8     libcpmt:xlocale.obj
 0003:000014ec       ?id@?$messages@D@std@@2V0locale@2@A 0043b4ec     libcpmt:xlocale.obj
 0003:000014f0       ?id@?$money_get@DV?$istreambuf_iterator@DU?$char_traits@D@std@@@std@@@std@@2V0locale@2@A 0043b4f0     libcpmt:xlocale.obj
 0003:000014f4       ?id@?$money_put@DV?$ostreambuf_iterator@DU?$char_traits@D@std@@@std@@@std@@2V0locale@2@A 0043b4f4     libcpmt:xlocale.obj
 0003:000014f8       ?id@?$moneypunct@D$0A@@std@@2V0locale@2@A 0043b4f8     libcpmt:xlocale.obj
 0003:000014fc       ?id@?$moneypunct@D$00@std@@2V0locale@2@A 0043b4fc     libcpmt:xlocale.obj
 0003:00001500       ?id@?$time_get@DV?$istreambuf_iterator@DU?$char_traits@D@std@@@std@@@std@@2V0locale@2@A 0043b500     libcpmt:xlocale.obj
 0003:00001504       ?id@?$time_put@DV?$ostreambuf_iterator@DU?$char_traits@D@std@@@std@@@std@@2V0locale@2@A 0043b504     libcpmt:xlocale.obj
 0003:00001508       ___scrt_current_native_startup_state 0043b508     LIBCMT:utility.obj
 0003:0000150c       ___scrt_native_startup_lock 0043b50c     LIBCMT:utility.obj
 0003:00001554       __tls_index                0043b554     LIBCMT:tlssup.obj
 0003:00001558       ___isa_available           0043b558     LIBCMT:_cpu_disp_.obj
 0003:0000155c       ___favor                   0043b55c     LIBCMT:_cpu_disp_.obj
 0003:00001560       ___scrt_debugger_hook_flag 0043b560     LIBCMT:utility_desktop.obj
 0003:00001888       ?__type_info_root_node@@3U__type_info_node@@A 0043b888     LIBCMT:tncleanup.obj
 0003:00001890       ?_OptionsStorage@?1??__local_stdio_scanf_options@@9@4_KA 0043b890     LIBCMT:default_local_stdio_options.obj
 0003:00001898       ?g_OutOfMemoryExceptionCallback@@3P6GPAXXZA 0043b898     libvcruntime:frame.obj
 0003:000018d0       ___pPurecall               0043b8d0     libvcruntime:purevirt_data.obj
 0003:00001918       ?pArgList@UnDecorator@@0PAVReplicator@@A 0043b918     libvcruntime:undname.obj
 0003:0000191c       ?pZNameList@UnDecorator@@0PAVReplicator@@A 0043b91c     libvcruntime:undname.obj
 0003:00001920       ?pTemplateArgList@UnDecorator@@0PAVReplicator@@A 0043b920     libvcruntime:undname.obj
 0003:00001924       ?gName@UnDecorator@@0PBDB  0043b924     libvcruntime:undname.obj
 0003:00001928       ?name@UnDecorator@@0PBDB   0043b928     libvcruntime:undname.obj
 0003:0000192c       ?outputString@UnDecorator@@0PADA 0043b92c     libvcruntime:undname.obj
 0003:00001930       ?maxStringLength@UnDecorator@@0HA 0043b930     libvcruntime:undname.obj
 0003:00001934       ?disableFlags@UnDecorator@@0KA 0043b934     libvcruntime:undname.obj
 0003:00001938       ?fExplicitTemplateParams@UnDecorator@@0_NA 0043b938     libvcruntime:undname.obj
 0003:00001939       ?fGetTemplateArgumentList@UnDecorator@@0_NA 0043b939     libvcruntime:undname.obj
 0003:0000193c       ?m_pGetParameter@UnDecorator@@0P6APADJ@ZA 0043b93c     libvcruntime:undname.obj
 0003:00001958       ___acrt_lconv_static_null  0043b958     libucrt:localeconv.obj
 0003:0000195c       ___acrt_lconv_static_W_null 0043b95c     libucrt:localeconv.obj
 0003:00001960       __nstream                  0043b960     libucrt:_file.obj
 0003:00001964       ___piob                    0043b964     libucrt:_file.obj
 0003:00001968       __cflush                   0043b968     libucrt:_file.obj
 0003:00001ae0       ?c_exit_complete@?1???R<lambda_6e4b09c48022b2350581041d5f6b0c4c>@@QBE@XZ@4_NA 0043bae0     libucrt:exit.obj
 0003:00001bf0       __environ_table            0043bbf0     libucrt:environment_initialization.obj
 0003:00001bf4       __wenviron_table           0043bbf4     libucrt:environment_initialization.obj
 0003:00001bf8       ___dcrt_initial_wide_environment 0043bbf8     libucrt:environment_initialization.obj
 0003:00001bfc       ___dcrt_initial_narrow_environment 0043bbfc     libucrt:environment_initialization.obj
 0003:00001c00       ___acrt_atexit_table       0043bc00     libucrt:onexit.obj
 0003:00001c0c       ___acrt_at_quick_exit_table 0043bc0c     libucrt:onexit.obj
 0003:00001c20       ___argc                    0043bc20     libucrt:argv_data.obj
 0003:00001c24       ___argv                    0043bc24     libucrt:argv_data.obj
 0003:00001c28       ___wargv                   0043bc28     libucrt:argv_data.obj
 0003:00001c2c       __acmdln                   0043bc2c     libucrt:argv_data.obj
 0003:00001c30       __wcmdln                   0043bc30     libucrt:argv_data.obj
 0003:00001c34       __pgmptr                   0043bc34     libucrt:argv_data.obj
 0003:00001c38       ___acrt_locale_changed_data 0043bc38     libucrt:wsetlocale.obj
 0003:00001c40       __commode                  0043bc40     libucrt:ncommode.obj
 0003:00001c48       ___acrt_stdout_buffer      0043bc48     libucrt:_sftbuf.obj
 0003:00001c4c       ___acrt_stderr_buffer      0043bc4c     libucrt:_sftbuf.obj
 0003:00001c50       ___acrt_current_locale_data 0043bc50     libucrt:nlsdata.obj
 0003:00001c58       ___pioinfo                 0043bc58     libucrt:ioinit.obj
 0003:00001e58       __nhandle                  0043be58     libucrt:ioinit.obj
 0003:00001f3c       ___acrt_heap               0043bf3c     libucrt:heap_handle.obj
 0003:00001f50       ___fastflag                0043bf50     libucrt:fp_flags.obj
 0003:00001f54       ?_daylight@@3V?$dual_state_global@H@__crt_state_management@@A 0043bf54     libucrt:timeset.obj
 0003:00001f58       ?_dstbias@@3V?$dual_state_global@J@__crt_state_management@@A 0043bf58     libucrt:timeset.obj
 0003:00001f5c       ?_timezone@@3V?$dual_state_global@J@__crt_state_management@@A 0043bf5c     libucrt:timeset.obj
 0003:0000201c       __mbctype                  0043c01c     libucrt:mbctype.obj
 0003:00002020       __mbcasemap                0043c020     libucrt:mbctype.obj
 0003:00002024       ___acrt_current_multibyte_data 0043c024     libucrt:mbctype.obj
 0003:00002030       __fmode                    0043c030     libucrt:txtmode.obj
 0003:00002038       __umaskval                 0043c038     libucrt:umask.obj
 0003:0000203c       ___dyn_tls_dtor_callback   0043c03c     <common>
 0003:00002040       ___dyn_tls_init_callback   0043c040     <common>
 0003:00002044       ___scrt_ucrt_dll_is_in_use 0043c044     <common>
 0003:00002048       __pmatherr                 0043c048     <common>
 0003:0000204c       ___use_sse2_mathfcns       0043c04c     <common>
 0005:00000000       __tls_start                0043e000     LIBCMT:tlssup.obj
 0005:00000004       __Init_thread_epoch        0043e004     LIBCMT:thread_safe_statics.obj
 0005:00000008       __tls_end                  0043e008     LIBCMT:tlssup.obj

 entry point at        0001:0000bbe7

 Static symbols

 0000:fffbe000       .debug$S                   00400000     Shell32:SHELL32.dll
 0000:fffbe000       .debug$S                   00400000     kernel32:KERNEL32.dll
 0000:fffbe000       .debug$S                   00400000     kernel32:KERNEL32.dll
 0000:fffbe000       .debug$S                   00400000     kernel32:KERNEL32.dll
 0000:fffbe000       .debug$S                   00400000     kernel32:KERNEL32.dll
 0000:fffbe000       .debug$S                   00400000     kernel32:KERNEL32.dll
 0000:fffbe000       .debug$S                   00400000     kernel32:KERNEL32.dll
 0000:fffbe000       .debug$S                   00400000     kernel32:KERNEL32.dll
 0000:fffbe000       .debug$S                   00400000     kernel32:KERNEL32.dll
 0000:fffbe000       .debug$S                   00400000     kernel32:KERNEL32.dll
 0000:fffbe000       .debug$S                   00400000     kernel32:KERNEL32.dll
 0000:fffbe000       .debug$S                   00400000     kernel32:KERNEL32.dll
 0000:fffbe000       .debug$S                   00400000     kernel32:KERNEL32.dll
 0000:fffbe000       .debug$S                   00400000     kernel32:KERNEL32.dll
 0000:fffbe000       .debug$S                   00400000     kernel32:KERNEL32.dll
 0000:fffbe000       .debug$S                   00400000     kernel32:KERNEL32.dll
 0000:fffbe000       .debug$S                   00400000     kernel32:KERNEL32.dll
 0000:fffbe000       .debug$S                   00400000     kernel32:KERNEL32.dll
 0000:fffbe000       .debug$S                   00400000     kernel32:KERNEL32.dll
 0000:fffbe000       .debug$S                   00400000     kernel32:KERNEL32.dll
 0000:fffbe000       .debug$S                   00400000     kernel32:KERNEL32.dll
 0000:fffbe000       .debug$S                   00400000     kernel32:KERNEL32.dll
 0000:fffbe000       .debug$S                   00400000     kernel32:KERNEL32.dll
 0000:fffbe000       .debug$S                   00400000     kernel32:KERNEL32.dll
 0000:fffbe000       .debug$S                   00400000     kernel32:KERNEL32.dll
 0000:fffbe000       .debug$S                   00400000     kernel32:KERNEL32.dll
 0000:fffbe000       .debug$S                   00400000     kernel32:KERNEL32.dll
 0000:fffbe000       .debug$S                   00400000     kernel32:KERNEL32.dll
 0000:fffbe000       .debug$S                   00400000     kernel32:KERNEL32.dll
 0000:fffbe000       .debug$S                   00400000     kernel32:KERNEL32.dll
 0000:fffbe000       .debug$S                   00400000     kernel32:KERNEL32.dll
 0000:fffbe000       .debug$S                   00400000     kernel32:KERNEL32.dll
 0000:fffbe000       .debug$S                   00400000     kernel32:KERNEL32.dll
 0000:fffbe000       .debug$S                   00400000     kernel32:KERNEL32.dll
 0000:fffbe000       .debug$S                   00400000     kernel32:KERNEL32.dll
 0000:fffbe000       .debug$S                   00400000     kernel32:KERNEL32.dll
 0000:fffbe000       .debug$S                   00400000     kernel32:KERNEL32.dll
 0000:fffbe000       .debug$S                   00400000     kernel32:KERNEL32.dll
 0000:fffbe000       .debug$S                   00400000     kernel32:KERNEL32.dll
 0000:fffbe000       .debug$S                   00400000     kernel32:KERNEL32.dll
 0000:fffbe000       .debug$S                   00400000     kernel32:KERNEL32.dll
 0000:fffbe000       .debug$S                   00400000     kernel32:KERNEL32.dll
 0000:fffbe000       .debug$S                   00400000     kernel32:KERNEL32.dll
 0000:fffbe000       .debug$S                   00400000     kernel32:KERNEL32.dll
 0000:fffbe000       .debug$S                   00400000     kernel32:KERNEL32.dll
 0000:fffbe000       .debug$S                   00400000     kernel32:KERNEL32.dll
 0000:fffbe000       .debug$S                   00400000     kernel32:KERNEL32.dll
 0000:fffbe000       .debug$S                   00400000     kernel32:KERNEL32.dll
 0000:fffbe000       .debug$S                   00400000     kernel32:KERNEL32.dll
 0000:fffbe000       .debug$S                   00400000     kernel32:KERNEL32.dll
 0000:fffbe000       .debug$S                   00400000     kernel32:KERNEL32.dll
 0000:fffbe000       .debug$S                   00400000     kernel32:KERNEL32.dll
 0000:fffbe000       .debug$S                   00400000     kernel32:KERNEL32.dll
 0000:fffbe000       .debug$S                   00400000     kernel32:KERNEL32.dll
 0000:fffbe000       .debug$S                   00400000     kernel32:KERNEL32.dll
 0000:fffbe000       .debug$S                   00400000     kernel32:KERNEL32.dll
 0000:fffbe000       .debug$S                   00400000     kernel32:KERNEL32.dll
 0000:fffbe000       .debug$S                   00400000     kernel32:KERNEL32.dll
 0000:fffbe000       .debug$S                   00400000     kernel32:KERNEL32.dll
 0000:fffbe000       .debug$S                   00400000     kernel32:KERNEL32.dll
 0000:fffbe000       .debug$S                   00400000     kernel32:KERNEL32.dll
 0000:fffbe000       .debug$S                   00400000     kernel32:KERNEL32.dll
 0000:fffbe000       .debug$S                   00400000     kernel32:KERNEL32.dll
 0000:fffbe000       .debug$S                   00400000     kernel32:KERNEL32.dll
 0000:fffbe000       .debug$S                   00400000     kernel32:KERNEL32.dll
 0000:fffbe000       .debug$S                   00400000     kernel32:KERNEL32.dll
 0000:fffbe000       .debug$S                   00400000     kernel32:KERNEL32.dll
 0000:fffbe000       .debug$S                   00400000     kernel32:KERNEL32.dll
 0000:fffbe000       .debug$S                   00400000     kernel32:KERNEL32.dll
 0000:fffbe000       .debug$S                   00400000     kernel32:KERNEL32.dll
 0000:fffbe000       .debug$S                   00400000     kernel32:KERNEL32.dll
 0000:fffbe000       .debug$S                   00400000     kernel32:KERNEL32.dll
 0000:fffbe000       .debug$S                   00400000     kernel32:KERNEL32.dll
 0000:fffbe000       .debug$S                   00400000     kernel32:KERNEL32.dll
 0000:fffbe000       .debug$S                   00400000     kernel32:KERNEL32.dll
 0000:fffbe000       .debug$S                   00400000     kernel32:KERNEL32.dll
 0000:fffbe000       .debug$S                   00400000     kernel32:KERNEL32.dll
 0000:fffbe000       .debug$S                   00400000     kernel32:KERNEL32.dll
 0000:fffbe000       .debug$S                   00400000     kernel32:KERNEL32.dll
 0000:fffbe000       .debug$S                   00400000     kernel32:KERNEL32.dll
 0000:fffbe000       .debug$S                   00400000     kernel32:KERNEL32.dll
 0000:fffbe000       .debug$S                   00400000     kernel32:KERNEL32.dll
 0000:fffbe000       .debug$S                   00400000     kernel32:KERNEL32.dll
 0000:fffbe000       .debug$S                   00400000     kernel32:KERNEL32.dll
 0000:fffbe000       .debug$S                   00400000     kernel32:KERNEL32.dll
 0000:fffbe000       .debug$S                   00400000     kernel32:KERNEL32.dll
 0000:fffbe000       .debug$S                   00400000     kernel32:KERNEL32.dll
 0000:fffbe000       .debug$S                   00400000     kernel32:KERNEL32.dll
 0000:fffbe000       .debug$S                   00400000     kernel32:KERNEL32.dll
 0000:fffbe000       .debug$S                   00400000     kernel32:KERNEL32.dll
 0000:fffbe000       .debug$S                   00400000     kernel32:KERNEL32.dll
 0000:fffbe000       .debug$S                   00400000     kernel32:KERNEL32.dll
 0000:fffbe000       .debug$S                   00400000     kernel32:KERNEL32.dll
 0000:fffbe000       .debug$S                   00400000     kernel32:KERNEL32.dll
 0000:fffbe000       .debug$S                   00400000     kernel32:KERNEL32.dll
 0000:fffbe000       .debug$S                   00400000     kernel32:KERNEL32.dll
 0000:fffbe000       .debug$S                   00400000     kernel32:KERNEL32.dll
 0001:00000000       ??__EsEndTag@@YAXXZ        00401000 f   StringScanner.cpp.obj
 0001:00000050       ??__EsStartTag@@YAXXZ      00401050 f   StringScanner.cpp.obj
 0001:000000a0       ??__EsWEndTag@@YAXXZ       004010a0 f   StringScanner.cpp.obj
 0001:000000f0       ??__EsWStartTag@@YAXXZ     004010f0 f   StringScanner.cpp.obj
 0001:00000133       ??__Einitlocks@std@@YAXXZ  00401133 f   libcpmt:xlock.obj
 0001:00000149       ??__E_Fac_tidy_reg@std@@YAXXZ 00401149 f   libcpmt:locale0.obj
 0001:00000155       ??__Eclassic_locale@std@@YAXXZ 00401155 f   libcpmt:locale0.obj
 0001:00000161       ??__Ecout@std@@YAXXZ       00401161 f   libcpmt:cout.obj
 0001:00000180       ??__Efout@std@@YAXXZ       00401180 f   libcpmt:cout.obj
 0001:000001ba       ??__Einit_cout@std@@YAXXZ  004011ba f   libcpmt:cout.obj
 0001:000001c4       ??__Einitlocks@@YAXXZ      004011c4 f   libcpmt:cout.obj
 0001:000001da       ??__Einit_wcout@std@@YAXXZ 004011da f   libcpmt:wcout.obj
 0001:000001e4       ??__Einitlocks@@YAXXZ      004011e4 f   libcpmt:wcout.obj
 0001:000001fa       ??__Ewcout@std@@YAXXZ      004011fa f   libcpmt:wcout.obj
 0001:00000219       ??__Ewfout@std@@YAXXZ      00401219 f   libcpmt:wcout.obj
 0001:000002d3       ??__Einit_atexit@@YAXXZ    004012d3 f   libcpmt:iosptrs.obj
 0001:000002df       ??__Einitlocks@std@@YAXXZ  004012df f   libcpmt:iosptrs.obj
 0001:00000522       __catch$??$?6U?$char_traits@D@std@@@std@@YAAAV?$basic_ostream@DU?$char_traits@D@std@@@0@AAV10@PBD@Z$0 00401522 f i ObfuscateStrings.cpp.obj
 0001:000008aa       __catch$??$?6_WU?$char_traits@_W@std@@@std@@YAAAV?$basic_ostream@_WU?$char_traits@_W@std@@@0@AAV10@PBD@Z$0 004018aa f i ObfuscateStrings.cpp.obj
 0001:00000b87       __catch$??$?6_WU?$char_traits@_W@std@@@std@@YAAAV?$basic_ostream@_WU?$char_traits@_W@std@@@0@AAV10@PB_W@Z$0 00401b87 f i ObfuscateStrings.cpp.obj
 0001:00001a03       __catch$??6?$basic_ostream@DU?$char_traits@D@std@@@std@@QAEAAV01@H@Z$0 00402a03 f i ObfuscateStrings.cpp.obj
 0001:00001d5e       __catch$?_Copy@?$basic_string@DU?$char_traits@D@std@@V?$allocator@D@2@@std@@QAEXII@Z$0 00402d5e f i ObfuscateStrings.cpp.obj
 0001:00001e07       __catch$?_Copy@?$basic_string@DU?$char_traits@D@std@@V?$allocator@D@2@@std@@QAEXII@Z$1 00402e07 f i ObfuscateStrings.cpp.obj
 0001:00001ec1       __catch$?_Copy@?$basic_string@_WU?$char_traits@_W@std@@V?$allocator@_W@2@@std@@QAEXII@Z$0 00402ec1 f i ObfuscateStrings.cpp.obj
 0001:00001f71       __catch$?_Copy@?$basic_string@_WU?$char_traits@_W@std@@V?$allocator@_W@2@@std@@QAEXII@Z$1 00402f71 f i ObfuscateStrings.cpp.obj
 0001:00002911       __catch$?_Init@?$numpunct@D@std@@IAEXABV_Locinfo@2@_N@Z$0 00403911 f i ObfuscateStrings.cpp.obj
 0001:00002e54       __catch$?_Osfx@?$basic_ostream@_WU?$char_traits@_W@std@@@std@@QAEXXZ$0 00403e54 f i ObfuscateStrings.cpp.obj
 0001:00002e54       __catch$?_Osfx@?$basic_ostream@DU?$char_traits@D@std@@@std@@QAEXXZ$0 00403e54 f i ObfuscateStrings.cpp.obj
 0001:00005604       __catch$??0?$vector@U?$pair@HH@std@@V?$allocator@U?$pair@HH@std@@@2@@std@@QAE@ABV01@@Z$0 00406604 f i StringScanner.cpp.obj
 0001:00006f21       __catch$?_Ipfx@?$basic_istream@DU?$char_traits@D@std@@@std@@QAE_N_N@Z$0 00407f21 f i StringScanner.cpp.obj
 0001:0000705f       __catch$?_Reallocate@?$vector@U?$pair@HH@std@@V?$allocator@U?$pair@HH@std@@@2@@std@@IAEXI@Z$0 0040805f f i StringScanner.cpp.obj
 0001:00007bb2       __catch$?read@?$basic_istream@DU?$char_traits@D@std@@@std@@QAEAAV12@PAD_J@Z$0 00408bb2 f i StringScanner.cpp.obj
 0001:00008500       __catch$?write@?$basic_ostream@DU?$char_traits@D@std@@@std@@QAEAAV12@PBD_J@Z$0 00409500 f i StringScanner.cpp.obj
 0001:00008750       _memcpy_s                  00409750 f   StringScanner.cpp.obj
 0001:0000937b       _tidy_global               0040a37b f   libcpmt:locale0.obj
 0001:0000a580       _no_op_initialize          0040b580 f i libucrt:wsetlocale.obj
 0001:0000aa06       _memcpy_s                  0040ba06 f   libcpmt:wcout.obj
 0001:0000af88       ?initialize_pointers@@YAHXZ 0040bf88 f   libcpmt:winapisupp.obj
 0001:0000b4f6       ?find_pe_section@@YAPAU_IMAGE_SECTION_HEADER@@QAEI@Z 0040c4f6 f   LIBCMT:utility.obj
 0001:0000b75e       ?__scrt_initialize_thread_safe_statics@@YAHXZ 0040c75e f   LIBCMT:thread_safe_statics.obj
 0001:0000b81e       ?__scrt_uninitialize_thread_safe_statics@@YAXXZ 0040c81e f   LIBCMT:thread_safe_statics.obj
 0001:0000b9ba       ?pre_c_initialization@@YAHXZ 0040c9ba f   LIBCMT:exe_main.obj
 0001:0000ba5e       ?post_pgo_initialization@@YAHXZ 0040ca5e f   LIBCMT:exe_main.obj
 0001:0000ba66       ?pre_cpp_initialization@@YAXXZ 0040ca66 f   LIBCMT:exe_main.obj
 0001:0000ba78       ?__scrt_common_main_seh@@YAHXZ 0040ca78 f   LIBCMT:exe_main.obj
 0001:0000bcc0       $$000000                   0040ccc0     LIBCMT:alloca16.obj
 0001:0000bcf0       $$000000                   0040ccf0     LIBCMT:llmul.obj
 0001:0000bd30       $$000000                   0040cd30     LIBCMT:ulldiv.obj
 0001:0000c130       $$000000                   0040d130     LIBCMT:_sehprolg4_.obj
 0001:0000c500       $$000000                   0040d500     LIBCMT:chkstk.obj
 0001:0000c635       ?CallCatchBlock@@YAPAXPAUEHExceptionRecord@@PAUEHRegistrationNode@@PAU_CONTEXT@@PBU_s_FuncInfo@@PAXHK@Z 0040d635 f   libvcruntime:frame.obj
 0001:0000c7f1       ?CallUnexpected@@YAXPBU_s_ESTypeList@@@Z 0040d7f1 f   libvcruntime:frame.obj
 0001:0000c811       __catch$?CallUnexpected@@YAXPBU_s_ESTypeList@@@Z$0 0040d811 f   libvcruntime:frame.obj
 0001:0000c82b       ?CatchIt@@YAXPAUEHExceptionRecord@@PAUEHRegistrationNode@@PAU_CONTEXT@@PAXPBU_s_FuncInfo@@PBU_s_HandlerType@@PBU_s_CatchableType@@PBU_s_TryBlockMapEntry@@H1E@Z 0040d82b f   libvcruntime:frame.obj
 0001:0000c8a6       ?ExFilterRethrow@@YAHPAU_EXCEPTION_POINTERS@@@Z 0040d8a6 f   libvcruntime:frame.obj
 0001:0000c8f0       ?FindHandler@@YAXPAUEHExceptionRecord@@PAUEHRegistrationNode@@PAU_CONTEXT@@PAXPBU_s_FuncInfo@@EH1@Z 0040d8f0 f   libvcruntime:frame.obj
 0001:0000cc58       ?FindHandlerForForeignException@@YAXPAUEHExceptionRecord@@PAUEHRegistrationNode@@PAU_CONTEXT@@PAXPBU_s_FuncInfo@@HH1@Z 0040dc58 f   libvcruntime:frame.obj
 0001:0000cd73       ?IsInExceptionSpec@@YAEPAUEHExceptionRecord@@PBU_s_ESTypeList@@@Z 0040dd73 f   libvcruntime:frame.obj
 0001:0000ce0f       ?Is_bad_exception_allowed@@YAEPBU_s_ESTypeList@@@Z 0040de0f f   libvcruntime:frame.obj
 0001:0000d2e0       $$000000                   0040e2e0     libvcruntime:memmove.obj
 0001:0000d544       TrailingUpVec              0040e544     libvcruntime:memmove.obj
 0001:0000d5f0       TrailingDownVec            0040e5f0     libvcruntime:memmove.obj
 0001:0000dd20       $$000000                   0040ed20     libvcruntime:memcpy.obj
 0001:0000df84       TrailingUpVec              0040ef84     libvcruntime:memcpy.obj
 0001:0000e030       TrailingDownVec            0040f030     libvcruntime:memcpy.obj
 0001:0000e2a0       $$000000                   0040f2a0     libvcruntime:memset.obj
 0001:0000e400       $$000000                   0040f400     libvcruntime:memchr.obj
 0001:0000fbad       $LN1281                    00410bad     libvcruntime:_memcmp_.obj
 0001:0000fc80       _ValidateLocalCookies      00410c80 f   libvcruntime:_chandler4_.obj
 0001:0000fe43       ?try_get_function@@YAPAXW4function_id@?A0x89697e75@@QBDQBW4module_id@2@2@Z 00410e43 f   libvcruntime:winapi_downlevel.obj
 0001:0000fee3       ?try_get_module@@YAPAUHINSTANCE__@@W4module_id@?A0x89697e75@@@Z 00410ee3 f   libvcruntime:winapi_downlevel.obj
 0001:00010280       $$000000                   00411280     libvcruntime:lowhelpr.obj
 0001:00010340       $$000000                   00411340     libvcruntime:_exsup4_.obj
 0001:000103d0       __unwind_handler4          004113d0 f   libvcruntime:_exsup4_.obj
 0001:000104a0       $$000000                   004114a0     libvcruntime:_exsup_.obj
 0001:000104c0       __unwind_handler           004114c0 f   libvcruntime:_exsup_.obj
 0001:00010920       ??$common_vsprintf@Vformat_validation_base@__crt_stdio_output@@D@@YAH_KQADIQBDQAU__crt_locale_pointers@@1@Z 00411920 f   libucrt:output.obj
 0001:00010aa0       ??$common_vsprintf_s@D@@YAH_KQADIQBDQAU__crt_locale_pointers@@1@Z 00411aa0 f   libucrt:output.obj
 0001:000110e5       $LN52                      004120e5     libucrt:output.obj
 0001:00011604       $LN19                      00412604     libucrt:output.obj
 0001:00011cc0       $$000000                   00412cc0     libucrt:strcspn.obj
 0001:00012259       ?common_flush_all@@YAH_N@Z 00413259 f   libucrt:fflush.obj
 0001:00012298       ?common_flush_all_should_try_to_flush_stream@@YA_NV__crt_stdio_stream@@QAH@Z 00413298 f   libucrt:fflush.obj
 0001:000122ca       ?is_stream_flushable_or_commitable@@YA_NJ@Z 004132ca f   libucrt:fflush.obj
 0001:00012770       ?common_fseek@@YAHV__crt_stdio_stream@@_JH@Z 00413770 f   libucrt:fseek.obj
 0001:000127f7       ?common_fseek_binary_mode_read_only_fast_track_nolock@@YA_NV__crt_stdio_stream@@_JH@Z 004137f7 f   libucrt:fseek.obj
 0001:000128d0       ?common_fseek_nolock@@YAHV__crt_stdio_stream@@_JH@Z 004138d0 f   libucrt:fseek.obj
 0001:00012a58       ??R<lambda_54dcfcba6f8e0c549fa430f4d53fb7dd>@@QBEIXZ 00413a58 f   libucrt:fwrite.obj
 0001:00012ce8       ??R<lambda_ca71763b3c0644891230e4f79ea54fa6>@@QBEHXZ 00413ce8 f   libucrt:setvbuf.obj
 0001:00012d82       ?set_buffer@@YAHV__crt_stdio_stream@@QADIH@Z 00413d82 f   libucrt:setvbuf.obj
 0001:00012f8a       ?scale_count@@YA_J_J@Z     00413f8a f   libucrt:clock.obj
 0001:000137f1       ?x_ismbbtype_l@@YAHPAU__crt_locale_pointers@@IHH@Z 004147f1 f   libucrt:ismbbyte.obj
 0001:000138e6       ??R<lambda_082c17da81b0962e08c0587ee0fac50c>@@QBEPADXZ 004148e6 f   libucrt:setlocale.obj
 0001:00013a50       _call_wsetlocale           00414a50 f   libucrt:setlocale.obj
 0001:00013d00       ?fputwc_binary_nolock@@YAG_WV__crt_stdio_stream@@@Z 00414d00 f   libucrt:fputwc.obj
 0001:00013ed7       ?ungetwc_binary_mode_nolock@@YAGGV__crt_stdio_stream@@@Z 00414ed7 f   libucrt:ungetwc.obj
 0001:00013f47       ?ungetwc_text_mode_nolock@@YAGGV__crt_stdio_stream@@@Z 00414f47 f   libucrt:ungetwc.obj
 0001:00014183       ??$common_fsopen@_W@@YAPAU_iobuf@@QB_W0H@Z 00415183 f   libucrt:fopen.obj
 0001:00014ba0       $$000000                   00415ba0     libucrt:pow.obj
 0001:00014e8d       ??$common_tox_l@$1?internal_isupper_l@@YA_NHQAU__crt_locale_pointers@@@Z$1?internal_map_lower@@YAHH0@Z@@YAHHKQAU__crt_locale_pointers@@@Z 00415e8d f   libucrt:tolower_toupper.obj
 0001:00014fd7       ?internal_isupper_l@@YA_NHQAU__crt_locale_pointers@@@Z 00415fd7 f   libucrt:tolower_toupper.obj
 0001:000152c6       ??R<lambda_6e4b09c48022b2350581041d5f6b0c4c>@@QBE@XZ 004162c6 f   libucrt:exit.obj
 0001:000153a2       ?atexit_exception_filter@@YAHK@Z 004163a2 f   libucrt:exit.obj
 0001:000153b5       ?common_exit@@YAXHW4_crt_exit_cleanup_mode@@W4_crt_exit_return_mode@@@Z 004163b5 f   libucrt:exit.obj
 0001:0001540b       ?exit_or_terminate_process@@YAXI@Z 0041640b f   libucrt:exit.obj
 0001:0001544d       ?is_managed_app@@YA_NXZ    0041644d f   libucrt:exit.obj
 0001:00015491       ?try_cor_exit_process@@YAXI@Z 00416491 f   libucrt:exit.obj
 0001:0001558c       ??$common_configure_argv@D@@YAHW4_crt_argv_mode@@@Z 0041658c f   libucrt:argv_parsing.obj
 0001:000156c2       ??$parse_command_line@D@@YAXPADPAPAD0PAI2@Z 004166c2 f   libucrt:argv_parsing.obj
 0001:00015897       ??$common_get_or_create_environment_nolock@D@@YAPAPADXZ 00416897 f   libucrt:environment_initialization.obj
 0001:000158c3       ??$common_initialize_environment_nolock@D@@YAHXZ 004168c3 f   libucrt:environment_initialization.obj
 0001:0001591c       ??$create_environment@D@@YAQAPADQAD@Z 0041691c f   libucrt:environment_initialization.obj
 0001:000159ed       ??$free_environment@_W@@YAXQAPA_W@Z 004169ed f   libucrt:environment_initialization.obj
 0001:000159ed       ??$free_environment@D@@YAXQAPAD@Z 004169ed f   libucrt:environment_initialization.obj
 0001:00015a1c       ??$initialize_environment_by_cloning_nolock@D@@YAHXZ 00416a1c f   libucrt:environment_initialization.obj
 0001:00015adb       ??$uninitialize_environment_internal@D@@YAXAAPAPAD@Z 00416adb f   libucrt:environment_initialization.obj
 0001:00015af6       ??$uninitialize_environment_internal@_W@@YAXAAPAPA_W@Z 00416af6 f   libucrt:environment_initialization.obj
 0001:00015c58       ??R<lambda_22ebabd17bc4fa466a2aca6d8deb888d>@@QBEHXZ 00416c58 f   libucrt:onexit.obj
 0001:00015d99       ??R<lambda_f03950bc5685219e0bcd2087efbe011e>@@QBEHXZ 00416d99 f   libucrt:onexit.obj
 0001:00015f4b       _initialize_global_variables 00416f4b f   libucrt:initialization.obj
 0001:00015f5d       _initialize_c              00416f5d f   libucrt:initialization.obj
 0001:00015f77       _uninitialize_environment  00416f77 f   libucrt:initialization.obj
 0001:00015f7f       _initialize_pointers       00416f7f f   libucrt:initialization.obj
 0001:00015fbc       _uninitialize_vcruntime    00416fbc f   libucrt:initialization.obj
 0001:00015fc6       _uninitialize_allocated_memory 00416fc6 f   libucrt:initialization.obj
 0001:00016030       _uninitialize_global_state_isolation 00417030 f   libucrt:initialization.obj
 0001:00016030       _initialize_environment    00417030 f   libucrt:initialization.obj
 0001:00016030       _report_memory_leaks       00417030 f   libucrt:initialization.obj
 0001:00016030       _uninitialize_c            00417030 f   libucrt:initialization.obj
 0001:00016030       _initialize_global_state_isolation 00417030 f   libucrt:initialization.obj
 0001:00016033       ??R<lambda_af42a3ee9806e9a7305d451646e05244>@@QBEXAAPAU__crt_multibyte_data@@@Z 00417033 f   libucrt:initialization.obj
 0001:0001648a       ??R<lambda_92fe181106aff629c9a2e25713a64969>@@QBEXXZ 0041748a f   libucrt:wsetlocale.obj
 0001:00016588       ??R<lambda_b163b37eafe0a13f2c371fafeb0365c9>@@QBE@XZ 00417588 f   libucrt:wsetlocale.obj
 0001:0001686d       __copytlocinfo_nolock      0041786d f   libucrt:wsetlocale.obj
 0001:00016cd9       __wsetlocale_get_all       00417cd9 f   libucrt:wsetlocale.obj
 0001:00016e72       __wsetlocale_nolock        00417e72 f   libucrt:wsetlocale.obj
 0001:00017157       __wsetlocale_set_cat       00418157 f   libucrt:wsetlocale.obj
 0001:000181bc       ?construct_ptd@@YAXQAU__acrt_ptd@@QAPAU__crt_locale_data@@@Z 004191bc f   libucrt:per_thread_data.obj
 0001:00018235       ?destroy_fls@@YGXPAX@Z     00419235 f   libucrt:per_thread_data.obj
 0001:00018256       ?destroy_ptd@@YAXQAU__acrt_ptd@@@Z 00419256 f   libucrt:per_thread_data.obj
 0001:000182ff       ?replace_current_thread_locale_nolock@@YAXQAU__acrt_ptd@@QAU__crt_locale_data@@@Z 004192ff f   libucrt:per_thread_data.obj
 0001:00019249       ?fp_format_a@@YAHQBNPADIQADIH_NIQAU__crt_locale_pointers@@@Z 0041a249 f   libucrt:cvt.obj
 0001:0001955d       ?fp_format_e@@YAHQBNQADI1IH_NIQAU__crt_locale_pointers@@@Z 0041a55d f   libucrt:cvt.obj
 0001:000195f8       ?fp_format_e_internal@@YAHQADIH_NIQAU_strflt@@1QAU__crt_locale_pointers@@@Z 0041a5f8 f   libucrt:cvt.obj
 0001:00019743       ?fp_format_f@@YAHQBNQADI1IHQAU__crt_locale_pointers@@@Z 0041a743 f   libucrt:cvt.obj
 0001:000197d0       ?fp_format_f_internal@@YAHQADIHQAU_strflt@@_NQAU__crt_locale_pointers@@@Z 0041a7d0 f   libucrt:cvt.obj
 0001:000198a7       ?fp_format_g@@YAHQBNQADI1IH_NIQAU__crt_locale_pointers@@@Z 0041a8a7 f   libucrt:cvt.obj
 0001:0001996f       ?fp_format_nan_or_infinity@@YAHW4__acrt_fp_class@@_NPADI1@Z 0041a96f f   libucrt:cvt.obj
 0001:00019a67       ?shift_bytes@@YAXQADI0H@Z  0041aa67 f   libucrt:cvt.obj
 0001:00019d0e       ?initialize_inherited_file_handles_nolock@@YAXXZ 0041ad0e f   libucrt:ioinit.obj
 0001:00019dc4       ?initialize_stdio_handles_nolock@@YAXXZ 0041adc4 f   libucrt:ioinit.obj
 0001:00019efa       ?<lambda_invoker_stdcall>@<lambda_29d3c280b90b41c2ae070ffca879996a>@@CGHPA_W@Z 0041aefa f   libucrt:winapi_thunks.obj
 0001:00019fb3       ??R<lambda_29d3c280b90b41c2ae070ffca879996a>@@QBEHPA_W@Z 0041afb3 f   libucrt:winapi_thunks.obj
 0001:00019ffa       ?try_get_AreFileApisANSI@@YAP6GHXZXZ 0041affa f   libucrt:winapi_thunks.obj
 0001:0001a014       ?try_get_CompareStringEx@@YAP6GHPB_WK0H0HPAU_nlsversioninfo@@PAXJ@ZXZ 0041b014 f   libucrt:winapi_thunks.obj
 0001:0001a02e       ?try_get_EnumSystemLocalesEx@@YAP6GHP6GHPA_WKJ@ZKJPAX@ZXZ 0041b02e f   libucrt:winapi_thunks.obj
 0001:0001a048       ?try_get_GetDateFormatEx@@YAP6GHPB_WKPBU_SYSTEMTIME@@0PA_WH0@ZXZ 0041b048 f   libucrt:winapi_thunks.obj
 0001:0001a062       ?try_get_GetLocaleInfoEx@@YAP6GHPB_WKPA_WH@ZXZ 0041b062 f   libucrt:winapi_thunks.obj
 0001:0001a07c       ?try_get_GetTimeFormatEx@@YAP6GHPB_WKPBU_SYSTEMTIME@@0PA_WH@ZXZ 0041b07c f   libucrt:winapi_thunks.obj
 0001:0001a096       ?try_get_GetUserDefaultLocaleName@@YAP6GHPA_WH@ZXZ 0041b096 f   libucrt:winapi_thunks.obj
 0001:0001a0b0       ?try_get_IsValidLocaleName@@YAP6GHPB_W@ZXZ 0041b0b0 f   libucrt:winapi_thunks.obj
 0001:0001a0ca       ?try_get_LCIDToLocaleName@@YAP6GHKPA_WHK@ZXZ 0041b0ca f   libucrt:winapi_thunks.obj
 0001:0001a0e4       ?try_get_LCMapStringEx@@YAP6GHPB_WK0HPA_WHPAU_nlsversioninfo@@PAXJ@ZXZ 0041b0e4 f   libucrt:winapi_thunks.obj
 0001:0001a0fe       ?try_get_LocaleNameToLCID@@YAP6GKPB_WK@ZXZ 0041b0fe f   libucrt:winapi_thunks.obj
 0001:0001a118       ?try_get_first_available_module@@YAPAUHINSTANCE__@@QBW4module_id@?A0x391cf84c@@0@Z 0041b118 f   libucrt:winapi_thunks.obj
 0001:0001a1e0       ?try_get_function@@YAPAXW4function_id@?A0x391cf84c@@QBDQBW4module_id@2@2@Z 0041b1e0 f   libucrt:winapi_thunks.obj
 0001:0001ab29       ?find_or_allocate_unused_stream_nolock@@YA?AV__crt_stdio_stream@@XZ 0041bb29 f   libucrt:stream.obj
 0001:0001ad1b       ?write_double_translated_ansi_nolock@@YA?AUwrite_result@?A0x17268360@@HQBDI@Z 0041bd1b f   libucrt:write.obj
 0001:0001aee0       ?write_double_translated_unicode_nolock@@YA?AUwrite_result@?A0x17268360@@QBDI@Z 0041bee0 f   libucrt:write.obj
 0001:0001af4d       ?write_requires_double_translation_nolock@@YA_NH@Z 0041bf4d f   libucrt:write.obj
 0001:0001afc3       ?write_text_ansi_nolock@@YA?AUwrite_result@?A0x17268360@@HQBDI@Z 0041bfc3 f   libucrt:write.obj
 0001:0001b0a2       ?write_text_utf16le_nolock@@YA?AUwrite_result@?A0x17268360@@HQBDI@Z 0041c0a2 f   libucrt:write.obj
 0001:0001b190       ?write_text_utf8_nolock@@YA?AUwrite_result@?A0x17268360@@HQBDI@Z 0041c190 f   libucrt:write.obj
 0001:0001b5c1       ??$common_refill_and_read_nolock@D@@YAHV__crt_stdio_stream@@@Z 0041c5c1 f   libucrt:_filbuf.obj
 0001:0001b744       ??$common_refill_and_read_nolock@_W@@YAHV__crt_stdio_stream@@@Z 0041c744 f   libucrt:_filbuf.obj
 0001:0001b918       ??$common_ftell@_J@@YA_JV__crt_stdio_stream@@@Z 0041c918 f   libucrt:ftell.obj
 0001:0001b994       ??$common_ftell_nolock@_J@@YA_JV__crt_stdio_stream@@@Z 0041c994 f   libucrt:ftell.obj
 0001:0001bb19       ?buffer_character_size@@YAIW4__crt_lowio_text_mode@@@Z 0041cb19 f   libucrt:ftell.obj
 0001:0001bb3a       ?common_ftell_read_mode_nolock@@YA_JV__crt_stdio_stream@@_J1@Z 0041cb3a f   libucrt:ftell.obj
 0001:0001bcad       ?common_ftell_translated_utf8_nolock@@YA_JV__crt_stdio_stream@@_J@Z 0041ccad f   libucrt:ftell.obj
 0001:0001be48       ?count_newline_bytes@@YA_JQBD0W4__crt_lowio_text_mode@@@Z 0041ce48 f   libucrt:ftell.obj
 0001:0001bedc       ??$common_flush_and_write_nolock@D@@YAHHV__crt_stdio_stream@@@Z 0041cedc f   libucrt:_flsbuf.obj
 0001:0001bfed       ??$common_flush_and_write_nolock@_W@@YAHHV__crt_stdio_stream@@@Z 0041cfed f   libucrt:_flsbuf.obj
 0001:0001c102       ??$write_buffer_nolock@D@@YA_NDV__crt_stdio_stream@@@Z 0041d102 f   libucrt:_flsbuf.obj
 0001:0001c1ce       ??$write_buffer_nolock@_W@@YA_N_WV__crt_stdio_stream@@@Z 0041d1ce f   libucrt:_flsbuf.obj
 0001:0001c2b8       ??$common_lseek@_J@@YA_JH_JH@Z 0041d2b8 f   libucrt:lseek.obj
 0001:0001c3bd       ??$common_lseek_nolock@_J@@YA_JH_JH@Z 0041d3bd f   libucrt:lseek.obj
 0001:0001c5bb       ?InternalGetLocaleInfoA@@YAHQAU__crt_locale_pointers@@QB_WKQADH@Z 0041d5bb f   libucrt:getlocaleinfoa.obj
 0001:0001c985       ?__acrt_LCMapStringA_stat@@YAHPAU__crt_locale_pointers@@PB_WKPBDHPADHHH@Z 0041d985 f   libucrt:lcmapstringa.obj
 0001:0001cbed       ?_mbstowcs_l_helper@@YAIPA_WPBDIPAU__crt_locale_pointers@@@Z 0041dbed f   libucrt:mbstowcs.obj
 0001:0001ce69       ?_wcstombs_l_helper@@YAIPADPB_WIPAU__crt_locale_pointers@@@Z 0041de69 f   libucrt:wcstombs.obj
 0001:0001d3fb       ??$common_openfile@_W@@YAPAU_iobuf@@QB_W0HV__crt_stdio_stream@@@Z 0041e3fb f   libucrt:openfile.obj
 0001:0001d600       ?get_global_action_nolock@@YAPAP6AXH@ZH@Z 0041e600 f   libucrt:signal.obj
 0001:0001d642       ?siglookup@@YAPAU__crt_signal_action_t@@HQAU1@@Z 0041e642 f   libucrt:signal.obj
 0001:0001d9e0       $$000000                   0041e9e0     libucrt:pow_pentium4.obj
 0001:0001e500       $$000000                   0041f500     libucrt:87tran.obj
 0001:0001e700       $$000000                   0041f700     libucrt:87disp.obj
 0001:0001e900       $$000000                   0041f900     libucrt:genexcep.obj
 0001:0001e960       $$000000                   0041f960     libucrt:common.obj
 0001:0001eeb7       ?<lambda_invoker_cdecl>@<lambda_86056e3c024bff449830248dc1621ed2>@@CAHPBX0@Z 0041feb7 f   libucrt:argv_wildcards.obj
 0001:0001eecf       ??$common_expand_argv_wildcards@D@@YAHQAPADQAPAPAD@Z 0041fecf f   libucrt:argv_wildcards.obj
 0001:0001f0af       ??$copy_and_add_argument_to_buffer@D@@YAHQBD0IAAV?$argument_list@D@?A0x5f5c8891@@@Z 004200af f   libucrt:argv_wildcards.obj
 0001:0001f163       ??$expand_argument_wildcards@D@@YAHQAD0AAV?$argument_list@D@?A0x5f5c8891@@@Z 00420163 f   libucrt:argv_wildcards.obj
 0001:0001f2e7       ?expand_if_necessary@?$argument_list@D@?A0x5f5c8891@@AAEHXZ 004202e7 f   libucrt:argv_wildcards.obj
 0001:0001f3e4       ??R<lambda_ae742caa10f662c28703da3d2ea5e57e>@@QBEXXZ 004203e4 f   libucrt:mbctype.obj
 0001:0001f467       ?CPtoLocaleName@@YAPB_WH@Z 00420467 f   libucrt:mbctype.obj
 0001:0001f4a5       ?getSystemCP@@YAHH@Z       004204a5 f   libucrt:mbctype.obj
 0001:0001f518       ?setSBCS@@YAXPAU__crt_multibyte_data@@@Z 00420518 f   libucrt:mbctype.obj
 0001:0001f57d       ?setSBUpLow@@YAXPAU__crt_multibyte_data@@@Z 0042057d f   libucrt:mbctype.obj
 0001:0001f711       ?setmbcp_internal@@YAHH_NQAU__acrt_ptd@@QAPAU__crt_multibyte_data@@@Z 00420711 f   libucrt:mbctype.obj
 0001:0001f81e       ?update_thread_multibyte_data_internal@@YAPAU__crt_multibyte_data@@QAU__acrt_ptd@@QAU1@@Z 0042081e f   libucrt:mbctype.obj
 0001:0001fb03       ?find_end_of_double_null_terminated_sequence@@YAPB_WQB_W@Z 00420b03 f   libucrt:get_environment_from_os.obj
 0001:0001fbbd       ??$common_set_variable_in_environment_nolock@D@@YAHQADH@Z 00420bbd f   libucrt:setenv.obj
 0001:0001fe04       ??$copy_environment@D@@YAPAPADQAPAD@Z 00420e04 f   libucrt:setenv.obj
 0001:0001feb5       ??$ensure_current_environment_is_not_initial_environment_nolock@D@@YAXXZ 00420eb5 f   libucrt:setenv.obj
 0001:0001fecf       ??$find_in_environment_nolock@D@@YAHQBDI@Z 00420ecf f   libucrt:setenv.obj
 0001:000200e0       ??$common_tcsncpy_s@_W@@YAHQA_WIQB_WI@Z 004210e0 f   libucrt:wcsncpy_s.obj
 0001:00020d25       ?free_crt_array_internal@@YAXQAPBXI@Z 00421d25 f   libucrt:inittime.obj
 0001:00020d61       ?initialize_lc_time@@YA_NQAU__crt_lc_time_data@@QAU__crt_locale_data@@@Z 00421d61 f   libucrt:inittime.obj
 0001:00021567       _GetLocaleNameFromDefault  00422567 f   libucrt:get_qualified_locale.obj
 0001:000215f0       _GetLocaleNameFromLangCountry 004225f0 f   libucrt:get_qualified_locale.obj
 0001:0002168a       _GetLocaleNameFromLanguage 0042268a f   libucrt:get_qualified_locale.obj
 0001:000216e5       _GetPrimaryLen             004226e5 f   libucrt:get_qualified_locale.obj
 0001:00021719       _LangCountryEnumProcEx@12  00422719 f   libucrt:get_qualified_locale.obj
 0001:00021a03       _LanguageEnumProcEx@12     00422a03 f   libucrt:get_qualified_locale.obj
 0001:00021ac4       _ProcessCodePage           00422ac4 f   libucrt:get_qualified_locale.obj
 0001:00021bab       _TestDefaultCountry        00422bab f   libucrt:get_qualified_locale.obj
 0001:00021bf6       _TranslateName             00422bf6 f   libucrt:get_qualified_locale.obj
 0001:00021e34       _CountryEnumProc@4         00422e34 f   libucrt:getqloc_downlevel.obj
 0001:00021edd       _GetLcidFromCountry        00422edd f   libucrt:getqloc_downlevel.obj
 0001:00021f28       _GetLcidFromLangCountry    00422f28 f   libucrt:getqloc_downlevel.obj
 0001:00021fc3       _GetLcidFromLanguage       00422fc3 f   libucrt:getqloc_downlevel.obj
 0001:00022024       _GetPrimaryLen             00423024 f   libucrt:getqloc_downlevel.obj
 0001:00022050       _LangCountryEnumProc@4     00423050 f   libucrt:getqloc_downlevel.obj
 0001:000222a0       _LanguageEnumProc@4        004232a0 f   libucrt:getqloc_downlevel.obj
 0001:00022378       _LcidFromHexString         00423378 f   libucrt:getqloc_downlevel.obj
 0001:000223c9       _ProcessCodePage           004233c9 f   libucrt:getqloc_downlevel.obj
 0001:000224ac       _TestDefaultCountry        004234ac f   libucrt:getqloc_downlevel.obj
 0001:000224d0       _TestDefaultLanguage       004234d0 f   libucrt:getqloc_downlevel.obj
 0001:00022540       _TranslateName             00423540 f   libucrt:getqloc_downlevel.obj
 0001:000227a4       ___hw_cw_sse2              004237a4 f   libucrt:ieee87.obj
 0001:00022c2f       __hw_cw                    00423c2f f   libucrt:ieee87.obj
 0001:00024178       _memcpy_s                  00425178 f   libucrt:mbctype.obj
 0001:00024178       _memcpy_s                  00425178 f   libucrt:strtod.obj
 0001:00024178       _memcpy_s                  00425178 f   libucrt:cfout.obj
 0001:0002424f       ?GetTableIndexFromLocaleName@@YAHPB_W@Z 0042524f f   libucrt:lcidtoname_downlevel.obj
 0001:00024426       ??$translate_text_mode_nolock@D@@YAHHQADI@Z 00425426 f   libucrt:read.obj
 0001:0002457d       ??$translate_text_mode_nolock@_W@@YAHHQA_WI@Z 0042557d f   libucrt:read.obj
 0001:00024734       ?translate_ansi_or_utf8_nolock@@YAHHQADIQA_WI@Z 00425734 f   libucrt:read.obj
 0001:00024884       ?translate_utf16_from_console_nolock@@YAHHQA_WI@Z 00425884 f   libucrt:read.obj
 0001:00024dcd       ??$common_tcsncpy_s@D@@YAHQADIQBDI@Z 00425dcd f   libucrt:strncpy_s.obj
 0001:00025050       $$000000                   00426050     libucrt:strncmp.obj
 0001:000251ec       ??$common_sopen_dispatch@_W@@YAHQB_WHHHQAHH@Z 004261ec f   libucrt:open.obj
 0001:000252b8       ?configure_text_mode@@YAHHUfile_options@?A0xa9d50aae@@HAAW4__crt_lowio_text_mode@@@Z 004262b8 f   libucrt:open.obj
 0001:00025502       ?create_file@@YAPAXQB_WQAU_SECURITY_ATTRIBUTES@@Ufile_options@?A0xa9d50aae@@@Z 00426502 f   libucrt:open.obj
 0001:00025527       ?decode_open_create_flags@@YAKH@Z 00426527 f   libucrt:open.obj
 0001:00025597       ?decode_options@@YA?AUfile_options@?A0xa9d50aae@@HHH@Z 00426597 f   libucrt:open.obj
 0001:00025713       ?truncate_ctrl_z_if_present@@YAHH@Z 00426713 f   libucrt:open.obj
 0001:00025b0c       ___get_abstract_control_sse2 00426b0c f   libucrt:_fenvutils.obj
 0001:00025b89       ___get_abstract_control_x87 00426b89 f   libucrt:_fenvutils.obj
 0001:00025bfc       ___get_machine_control     00426bfc f   libucrt:_fenvutils.obj
 0001:00025c6d       ___get_machine_control_sse2 00426c6d f   libucrt:_fenvutils.obj
 0001:00025ced       ___get_machine_status_sse2 00426ced f   libucrt:_fenvutils.obj
 0001:00025d4e       ___get_machine_status_x87  00426d4e f   libucrt:_fenvutils.obj
 0001:000263a0       ?shortsort@@YAXPAD0IP6AHPBX1@Z@Z 004273a0 f   libucrt:qsort.obj
 0001:00026440       ?swap@@YAXPAD0I@Z          00427440 f   libucrt:qsort.obj
 0001:00026820       $$000000                   00427820     libucrt:strpbrk.obj
 0001:00026904       ?initialize_multibyte@@YAHXZ 00427904 f   libucrt:multibyte_initializer.obj
 0001:00026a44       ??$common_xtox@K_W@@YAHKQA_WII_N@Z 00427a44 f   libucrt:xtoa.obj
 0001:00026ad2       ??$common_xtox_s@K_W@@YAHKQA_WII_N@Z 00427ad2 f   libucrt:xtoa.obj
 0001:00026c20       $$000000                   00427c20     libucrt:log10.obj
 0001:00026d70       $$000000                   00427d70     libucrt:ceil_pentium4.obj
 0001:00026ed0       $$000000                   00427ed0     libucrt:_strnicm.obj
 0001:00027100       ?InternalCompareStringA@@YAHPAU__crt_locale_pointers@@PB_WKPBDH2HH@Z 00428100 f   libucrt:comparestringa.obj
 0001:000273f0       $$000000                   004283f0     libucrt:log10_pentium4.obj
 0001:00027890       $$000000                   00428890     LIBCMT:ulldvrm.obj
 0001:00027930       $$000000                   00428930     LIBCMT:lldiv.obj
 0001:000279e0       $$000000                   004289e0     LIBCMT:lldvrm.obj
 0001:00027ac0       $$000000                   00428ac0     LIBCMT:llshl.obj
 0001:00027ae0       $$000000                   00428ae0     LIBCMT:ullshr.obj
 0001:00027b00       $$000000                   00428b00     LIBCMT:_sehprolg4gs_.obj
 0001:00027b60       $$000000                   00428b60     LIBCMT:_ftol2_.obj
 0001:00027c20       $$000000                   00428c20     libvcruntime:strrchr.obj
 0001:00027d60       $$000000                   00428d60     libvcruntime:strchr.obj
 0001:00027f40       __unwindfunclet$??$?6U?$char_traits@D@std@@@std@@YAAAV?$basic_ostream@DU?$char_traits@D@std@@@0@AAV10@PBD@Z$3 00428f40 f   ObfuscateStrings.cpp.obj
 0001:00027f48       __unwindfunclet$??$?6U?$char_traits@D@std@@@std@@YAAAV?$basic_ostream@DU?$char_traits@D@std@@@0@AAV10@PBD@Z$2 00428f48 f   ObfuscateStrings.cpp.obj
 0001:00027f50       __unwindfunclet$??$?6U?$char_traits@D@std@@@std@@YAAAV?$basic_ostream@DU?$char_traits@D@std@@@0@AAV10@PBD@Z$24 00428f50 f   ObfuscateStrings.cpp.obj
 0001:00027f56       __unwindfunclet$??$?6U?$char_traits@D@std@@@std@@YAAAV?$basic_ostream@DU?$char_traits@D@std@@@0@AAV10@PBD@Z$25 00428f56 f   ObfuscateStrings.cpp.obj
 0001:00027f5c       __ehhandler$??$?6U?$char_traits@D@std@@@std@@YAAAV?$basic_ostream@DU?$char_traits@D@std@@@0@AAV10@PBD@Z 00428f5c f   ObfuscateStrings.cpp.obj
 0001:00027f80       __unwindfunclet$??$?6_WU?$char_traits@_W@std@@@std@@YAAAV?$basic_ostream@_WU?$char_traits@_W@std@@@0@AAV10@PBD@Z$4 00428f80 f   ObfuscateStrings.cpp.obj
 0001:00027f88       __unwindfunclet$??$?6_WU?$char_traits@_W@std@@@std@@YAAAV?$basic_ostream@_WU?$char_traits@_W@std@@@0@AAV10@PBD@Z$2 00428f88 f   ObfuscateStrings.cpp.obj
 0001:00027f90       __unwindfunclet$??$?6_WU?$char_traits@_W@std@@@std@@YAAAV?$basic_ostream@_WU?$char_traits@_W@std@@@0@AAV10@PBD@Z$3 00428f90 f   ObfuscateStrings.cpp.obj
 0001:00027f98       __unwindfunclet$??$?6_WU?$char_traits@_W@std@@@std@@YAAAV?$basic_ostream@_WU?$char_traits@_W@std@@@0@AAV10@PBD@Z$5 00428f98 f   ObfuscateStrings.cpp.obj
 0001:00027f9e       __unwindfunclet$??$?6_WU?$char_traits@_W@std@@@std@@YAAAV?$basic_ostream@_WU?$char_traits@_W@std@@@0@AAV10@PBD@Z$30 00428f9e f   ObfuscateStrings.cpp.obj
 0001:00027fa4       __unwindfunclet$??$?6_WU?$char_traits@_W@std@@@std@@YAAAV?$basic_ostream@_WU?$char_traits@_W@std@@@0@AAV10@PBD@Z$31 00428fa4 f   ObfuscateStrings.cpp.obj
 0001:00027faa       __ehhandler$??$?6_WU?$char_traits@_W@std@@@std@@YAAAV?$basic_ostream@_WU?$char_traits@_W@std@@@0@AAV10@PBD@Z 00428faa f   ObfuscateStrings.cpp.obj
 0001:00027fe0       __unwindfunclet$??$?6_WU?$char_traits@_W@std@@@std@@YAAAV?$basic_ostream@_WU?$char_traits@_W@std@@@0@AAV10@PB_W@Z$3 00428fe0 f   ObfuscateStrings.cpp.obj
 0001:00027fe8       __unwindfunclet$??$?6_WU?$char_traits@_W@std@@@std@@YAAAV?$basic_ostream@_WU?$char_traits@_W@std@@@0@AAV10@PB_W@Z$2 00428fe8 f   ObfuscateStrings.cpp.obj
 0001:00027ff0       __unwindfunclet$??$?6_WU?$char_traits@_W@std@@@std@@YAAAV?$basic_ostream@_WU?$char_traits@_W@std@@@0@AAV10@PB_W@Z$24 00428ff0 f   ObfuscateStrings.cpp.obj
 0001:00027ff6       __unwindfunclet$??$?6_WU?$char_traits@_W@std@@@std@@YAAAV?$basic_ostream@_WU?$char_traits@_W@std@@@0@AAV10@PB_W@Z$25 00428ff6 f   ObfuscateStrings.cpp.obj
 0001:00027ffc       __ehhandler$??$?6_WU?$char_traits@_W@std@@@std@@YAAAV?$basic_ostream@_WU?$char_traits@_W@std@@@0@AAV10@PB_W@Z 00428ffc f   ObfuscateStrings.cpp.obj
 0001:00028020       __unwindfunclet$??$use_facet@V?$num_put@DV?$ostreambuf_iterator@DU?$char_traits@D@std@@@std@@@std@@@std@@YAABV?$num_put@DV?$ostreambuf_iterator@DU?$char_traits@D@std@@@std@@@0@ABVlocale@0@@Z$0 00429020 f   ObfuscateStrings.cpp.obj
 0001:00028020       __unwindfunclet$??$use_facet@V?$ctype@D@std@@@std@@YAABV?$ctype@D@0@ABVlocale@0@@Z$0 00429020 f   ObfuscateStrings.cpp.obj
 0001:00028020       __unwindfunclet$??$use_facet@V?$codecvt@DDU_Mbstatet@@@std@@@std@@YAABV?$codecvt@DDU_Mbstatet@@@0@ABVlocale@0@@Z$0 00429020 f   StringScanner.cpp.obj
 0001:00028020       __unwindfunclet$??$use_facet@V?$ctype@_W@std@@@std@@YAABV?$ctype@_W@0@ABVlocale@0@@Z$0 00429020 f   ObfuscateStrings.cpp.obj
 0001:00028020       __unwindfunclet$??$use_facet@V?$numpunct@D@std@@@std@@YAABV?$numpunct@D@0@ABVlocale@0@@Z$0 00429020 f   ObfuscateStrings.cpp.obj
 0001:00028028       __ehhandler$??$use_facet@V?$ctype@D@std@@@std@@YAABV?$ctype@D@0@ABVlocale@0@@Z 00429028 f   ObfuscateStrings.cpp.obj
 0001:00028028       __ehhandler$??$use_facet@V?$ctype@_W@std@@@std@@YAABV?$ctype@_W@0@ABVlocale@0@@Z 00429028 f   ObfuscateStrings.cpp.obj
 0001:00028028       __ehhandler$??$use_facet@V?$num_put@DV?$ostreambuf_iterator@DU?$char_traits@D@std@@@std@@@std@@@std@@YAABV?$num_put@DV?$ostreambuf_iterator@DU?$char_traits@D@std@@@std@@@0@ABVlocale@0@@Z 00429028 f   ObfuscateStrings.cpp.obj
 0001:00028028       __ehhandler$??$use_facet@V?$numpunct@D@std@@@std@@YAABV?$numpunct@D@0@ABVlocale@0@@Z 00429028 f   ObfuscateStrings.cpp.obj
 0001:00028028       __ehhandler$??$use_facet@V?$codecvt@DDU_Mbstatet@@@std@@@std@@YAABV?$codecvt@DDU_Mbstatet@@@0@ABVlocale@0@@Z 00429028 f   StringScanner.cpp.obj
 0001:00028050       __unwindfunclet$??0_Locinfo@std@@QAE@PBD@Z$0 00429050 f   ObfuscateStrings.cpp.obj
 0001:00028058       __unwindfunclet$??0_Locinfo@std@@QAE@PBD@Z$1 00429058 f   ObfuscateStrings.cpp.obj
 0001:00028063       __unwindfunclet$??0_Locinfo@std@@QAE@PBD@Z$2 00429063 f   ObfuscateStrings.cpp.obj
 0001:0002806e       __unwindfunclet$??0_Locinfo@std@@QAE@PBD@Z$3 0042906e f   ObfuscateStrings.cpp.obj
 0001:00028079       __unwindfunclet$??0_Locinfo@std@@QAE@PBD@Z$4 00429079 f   ObfuscateStrings.cpp.obj
 0001:00028084       __unwindfunclet$??0_Locinfo@std@@QAE@PBD@Z$5 00429084 f   ObfuscateStrings.cpp.obj
 0001:0002808f       __unwindfunclet$??0_Locinfo@std@@QAE@PBD@Z$6 0042908f f   ObfuscateStrings.cpp.obj
 0001:0002809a       __ehhandler$??0_Locinfo@std@@QAE@PBD@Z 0042909a f   ObfuscateStrings.cpp.obj
 0001:000280c0       __unwindfunclet$??0sentry@?$basic_ostream@DU?$char_traits@D@std@@@std@@QAE@AAV12@@Z$0 004290c0 f   ObfuscateStrings.cpp.obj
 0001:000280c0       __unwindfunclet$??0sentry@?$basic_ostream@_WU?$char_traits@_W@std@@@std@@QAE@AAV12@@Z$0 004290c0 f   ObfuscateStrings.cpp.obj
 0001:000280c8       __ehhandler$??0sentry@?$basic_ostream@_WU?$char_traits@_W@std@@@std@@QAE@AAV12@@Z 004290c8 f   ObfuscateStrings.cpp.obj
 0001:000280c8       __ehhandler$??0sentry@?$basic_ostream@DU?$char_traits@D@std@@@std@@QAE@AAV12@@Z 004290c8 f   ObfuscateStrings.cpp.obj
 0001:000280f0       __ehhandler$??1_Sentry_base@?$basic_ostream@DU?$char_traits@D@std@@@std@@QAE@XZ 004290f0 f   ObfuscateStrings.cpp.obj
 0001:000280f0       __ehhandler$??1_Sentry_base@?$basic_istream@DU?$char_traits@D@std@@@std@@QAE@XZ 004290f0 f   StringScanner.cpp.obj
 0001:000280f0       __ehhandler$??1locale@std@@QAE@XZ 004290f0 f   ObfuscateStrings.cpp.obj
 0001:000280f0       __ehhandler$??1_Sentry_base@?$basic_ostream@_WU?$char_traits@_W@std@@@std@@QAE@XZ 004290f0 f   ObfuscateStrings.cpp.obj
 0001:00028110       __unwindfunclet$??6?$basic_ostream@DU?$char_traits@D@std@@@std@@QAEAAV01@H@Z$4 00429110 f   ObfuscateStrings.cpp.obj
 0001:00028118       __unwindfunclet$??6?$basic_ostream@DU?$char_traits@D@std@@@std@@QAEAAV01@H@Z$2 00429118 f   ObfuscateStrings.cpp.obj
 0001:00028120       __unwindfunclet$??6?$basic_ostream@DU?$char_traits@D@std@@@std@@QAEAAV01@H@Z$3 00429120 f   ObfuscateStrings.cpp.obj
 0001:00028128       __unwindfunclet$??6?$basic_ostream@DU?$char_traits@D@std@@@std@@QAEAAV01@H@Z$5 00429128 f   ObfuscateStrings.cpp.obj
 0001:0002812e       __unwindfunclet$??6?$basic_ostream@DU?$char_traits@D@std@@@std@@QAEAAV01@H@Z$20 0042912e f   ObfuscateStrings.cpp.obj
 0001:00028134       __unwindfunclet$??6?$basic_ostream@DU?$char_traits@D@std@@@std@@QAEAAV01@H@Z$21 00429134 f   ObfuscateStrings.cpp.obj
 0001:0002813a       __ehhandler$??6?$basic_ostream@DU?$char_traits@D@std@@@std@@QAEAAV01@H@Z 0042913a f   ObfuscateStrings.cpp.obj
 0001:00028160       __ehhandler$?_Copy@?$basic_string@DU?$char_traits@D@std@@V?$allocator@D@2@@std@@QAEXII@Z 00429160 f   ObfuscateStrings.cpp.obj
 0001:00028180       __ehhandler$?_Copy@?$basic_string@_WU?$char_traits@_W@std@@V?$allocator@_W@2@@std@@QAEXII@Z 00429180 f   ObfuscateStrings.cpp.obj
 0001:000281a0       __unwindfunclet$?_Fput@?$num_put@DV?$ostreambuf_iterator@DU?$char_traits@D@std@@@std@@@std@@ABA?AV?$ostreambuf_iterator@DU?$char_traits@D@std@@@2@V32@AAVios_base@2@DPBDI@Z$0 004291a0 f   ObfuscateStrings.cpp.obj
 0001:000281a8       __unwindfunclet$?_Fput@?$num_put@DV?$ostreambuf_iterator@DU?$char_traits@D@std@@@std@@@std@@ABA?AV?$ostreambuf_iterator@DU?$char_traits@D@std@@@2@V32@AAVios_base@2@DPBDI@Z$4 004291a8 f   ObfuscateStrings.cpp.obj
 0001:000281ae       __unwindfunclet$?_Fput@?$num_put@DV?$ostreambuf_iterator@DU?$char_traits@D@std@@@std@@@std@@ABA?AV?$ostreambuf_iterator@DU?$char_traits@D@std@@@2@V32@AAVios_base@2@DPBDI@Z$1 004291ae f   ObfuscateStrings.cpp.obj
 0001:000281b6       __unwindfunclet$?_Fput@?$num_put@DV?$ostreambuf_iterator@DU?$char_traits@D@std@@@std@@@std@@ABA?AV?$ostreambuf_iterator@DU?$char_traits@D@std@@@2@V32@AAVios_base@2@DPBDI@Z$2 004291b6 f   ObfuscateStrings.cpp.obj
 0001:000281be       __unwindfunclet$?_Fput@?$num_put@DV?$ostreambuf_iterator@DU?$char_traits@D@std@@@std@@@std@@ABA?AV?$ostreambuf_iterator@DU?$char_traits@D@std@@@2@V32@AAVios_base@2@DPBDI@Z$33 004291be f   ObfuscateStrings.cpp.obj
 0001:000281c4       __unwindfunclet$?_Fput@?$num_put@DV?$ostreambuf_iterator@DU?$char_traits@D@std@@@std@@@std@@ABA?AV?$ostreambuf_iterator@DU?$char_traits@D@std@@@2@V32@AAVios_base@2@DPBDI@Z$3 004291c4 f   ObfuscateStrings.cpp.obj
 0001:000281cc       __ehhandler$?_Fput@?$num_put@DV?$ostreambuf_iterator@DU?$char_traits@D@std@@@std@@@std@@ABA?AV?$ostreambuf_iterator@DU?$char_traits@D@std@@@2@V32@AAVios_base@2@DPBDI@Z 004291cc f   ObfuscateStrings.cpp.obj
 0001:00028200       __unwindfunclet$?_Getcat@?$ctype@D@std@@SAIPAPBVfacet@locale@2@PBV42@@Z$0 00429200 f   ObfuscateStrings.cpp.obj
 0001:0002820f       __ehhandler$?_Getcat@?$ctype@D@std@@SAIPAPBVfacet@locale@2@PBV42@@Z 0042920f f   ObfuscateStrings.cpp.obj
 0001:00028230       __unwindfunclet$?_Getcat@?$ctype@_W@std@@SAIPAPBVfacet@locale@2@PBV42@@Z$0 00429230 f   ObfuscateStrings.cpp.obj
 0001:0002823f       __ehhandler$?_Getcat@?$ctype@_W@std@@SAIPAPBVfacet@locale@2@PBV42@@Z 0042923f f   ObfuscateStrings.cpp.obj
 0001:00028260       __unwindfunclet$?_Getcat@?$numpunct@D@std@@SAIPAPBVfacet@locale@2@PBV42@@Z$0 00429260 f   ObfuscateStrings.cpp.obj
 0001:0002826f       __unwindfunclet$?_Getcat@?$numpunct@D@std@@SAIPAPBVfacet@locale@2@PBV42@@Z$1 0042926f f   ObfuscateStrings.cpp.obj
 0001:00028288       __unwindfunclet$?_Getcat@?$numpunct@D@std@@SAIPAPBVfacet@locale@2@PBV42@@Z$2 00429288 f   ObfuscateStrings.cpp.obj
 0001:00028290       __ehhandler$?_Getcat@?$numpunct@D@std@@SAIPAPBVfacet@locale@2@PBV42@@Z 00429290 f   ObfuscateStrings.cpp.obj
 0001:000282b0       __ehhandler$?_Init@?$numpunct@D@std@@IAEXABV_Locinfo@2@_N@Z 004292b0 f   ObfuscateStrings.cpp.obj
 0001:000282d0       __unwindfunclet$?_Iput@?$num_put@DV?$ostreambuf_iterator@DU?$char_traits@D@std@@@std@@@std@@ABA?AV?$ostreambuf_iterator@DU?$char_traits@D@std@@@2@V32@AAVios_base@2@DPADI@Z$0 004292d0 f   ObfuscateStrings.cpp.obj
 0001:000282d8       __unwindfunclet$?_Iput@?$num_put@DV?$ostreambuf_iterator@DU?$char_traits@D@std@@@std@@@std@@ABA?AV?$ostreambuf_iterator@DU?$char_traits@D@std@@@2@V32@AAVios_base@2@DPADI@Z$4 004292d8 f   ObfuscateStrings.cpp.obj
 0001:000282de       __unwindfunclet$?_Iput@?$num_put@DV?$ostreambuf_iterator@DU?$char_traits@D@std@@@std@@@std@@ABA?AV?$ostreambuf_iterator@DU?$char_traits@D@std@@@2@V32@AAVios_base@2@DPADI@Z$1 004292de f   ObfuscateStrings.cpp.obj
 0001:000282e6       __unwindfunclet$?_Iput@?$num_put@DV?$ostreambuf_iterator@DU?$char_traits@D@std@@@std@@@std@@ABA?AV?$ostreambuf_iterator@DU?$char_traits@D@std@@@2@V32@AAVios_base@2@DPADI@Z$2 004292e6 f   ObfuscateStrings.cpp.obj
 0001:000282ee       __unwindfunclet$?_Iput@?$num_put@DV?$ostreambuf_iterator@DU?$char_traits@D@std@@@std@@@std@@ABA?AV?$ostreambuf_iterator@DU?$char_traits@D@std@@@2@V32@AAVios_base@2@DPADI@Z$33 004292ee f   ObfuscateStrings.cpp.obj
 0001:000282f4       __unwindfunclet$?_Iput@?$num_put@DV?$ostreambuf_iterator@DU?$char_traits@D@std@@@std@@@std@@ABA?AV?$ostreambuf_iterator@DU?$char_traits@D@std@@@2@V32@AAVios_base@2@DPADI@Z$3 004292f4 f   ObfuscateStrings.cpp.obj
 0001:000282fc       __ehhandler$?_Iput@?$num_put@DV?$ostreambuf_iterator@DU?$char_traits@D@std@@@std@@@std@@ABA?AV?$ostreambuf_iterator@DU?$char_traits@D@std@@@2@V32@AAVios_base@2@DPADI@Z 004292fc f   ObfuscateStrings.cpp.obj
 0001:00028330       __unwindfunclet$?_Makestr@_System_error@std@@CA?AV?$basic_string@DU?$char_traits@D@std@@V?$allocator@D@2@@2@Verror_code@2@V32@@Z$0 00429330 f   ObfuscateStrings.cpp.obj
 0001:00028338       __unwindfunclet$?_Makestr@_System_error@std@@CA?AV?$basic_string@DU?$char_traits@D@std@@V?$allocator@D@2@@2@Verror_code@2@V32@@Z$1 00429338 f   ObfuscateStrings.cpp.obj
 0001:00028340       __ehhandler$?_Makestr@_System_error@std@@CA?AV?$basic_string@DU?$char_traits@D@std@@V?$allocator@D@2@@2@Verror_code@2@V32@@Z 00429340 f   ObfuscateStrings.cpp.obj
 0001:00028370       __ehhandler$?_Osfx@?$basic_ostream@DU?$char_traits@D@std@@@std@@QAEXXZ 00429370 f   ObfuscateStrings.cpp.obj
 0001:00028370       __ehhandler$?_Osfx@?$basic_ostream@_WU?$char_traits@_W@std@@@std@@QAEXXZ 00429370 f   ObfuscateStrings.cpp.obj
 0001:00028390       __unwindfunclet$?do_put@?$num_put@DV?$ostreambuf_iterator@DU?$char_traits@D@std@@@std@@@std@@MBE?AV?$ostreambuf_iterator@DU?$char_traits@D@std@@@2@V32@AAVios_base@2@DO@Z$0 00429390 f   ObfuscateStrings.cpp.obj
 0001:00028390       __unwindfunclet$?do_put@?$num_put@DV?$ostreambuf_iterator@DU?$char_traits@D@std@@@std@@@std@@MBE?AV?$ostreambuf_iterator@DU?$char_traits@D@std@@@2@V32@AAVios_base@2@DN@Z$0 00429390 f   ObfuscateStrings.cpp.obj
 0001:00028398       __ehhandler$?do_put@?$num_put@DV?$ostreambuf_iterator@DU?$char_traits@D@std@@@std@@@std@@MBE?AV?$ostreambuf_iterator@DU?$char_traits@D@std@@@2@V32@AAVios_base@2@DN@Z 00429398 f   ObfuscateStrings.cpp.obj
 0001:00028398       __ehhandler$?do_put@?$num_put@DV?$ostreambuf_iterator@DU?$char_traits@D@std@@@std@@@std@@MBE?AV?$ostreambuf_iterator@DU?$char_traits@D@std@@@2@V32@AAVios_base@2@DO@Z 00429398 f   ObfuscateStrings.cpp.obj
 0001:000283c0       __unwindfunclet$?do_put@?$num_put@DV?$ostreambuf_iterator@DU?$char_traits@D@std@@@std@@@std@@MBE?AV?$ostreambuf_iterator@DU?$char_traits@D@std@@@2@V32@AAVios_base@2@D_N@Z$0 004293c0 f   ObfuscateStrings.cpp.obj
 0001:000283c8       __unwindfunclet$?do_put@?$num_put@DV?$ostreambuf_iterator@DU?$char_traits@D@std@@@std@@@std@@MBE?AV?$ostreambuf_iterator@DU?$char_traits@D@std@@@2@V32@AAVios_base@2@D_N@Z$4 004293c8 f   ObfuscateStrings.cpp.obj
 0001:000283ce       __unwindfunclet$?do_put@?$num_put@DV?$ostreambuf_iterator@DU?$char_traits@D@std@@@std@@@std@@MBE?AV?$ostreambuf_iterator@DU?$char_traits@D@std@@@2@V32@AAVios_base@2@D_N@Z$1 004293ce f   ObfuscateStrings.cpp.obj
 0001:000283d6       __unwindfunclet$?do_put@?$num_put@DV?$ostreambuf_iterator@DU?$char_traits@D@std@@@std@@@std@@MBE?AV?$ostreambuf_iterator@DU?$char_traits@D@std@@@2@V32@AAVios_base@2@D_N@Z$32 004293d6 f   ObfuscateStrings.cpp.obj
 0001:000283dc       __unwindfunclet$?do_put@?$num_put@DV?$ostreambuf_iterator@DU?$char_traits@D@std@@@std@@@std@@MBE?AV?$ostreambuf_iterator@DU?$char_traits@D@std@@@2@V32@AAVios_base@2@D_N@Z$134 004293dc f   ObfuscateStrings.cpp.obj
 0001:000283e2       __ehhandler$?do_put@?$num_put@DV?$ostreambuf_iterator@DU?$char_traits@D@std@@@std@@@std@@MBE?AV?$ostreambuf_iterator@DU?$char_traits@D@std@@@2@V32@AAVios_base@2@D_N@Z 004293e2 f   ObfuscateStrings.cpp.obj
 0001:00028410       __unwindfunclet$?flush@?$basic_ostream@DU?$char_traits@D@std@@@std@@QAEAAV12@XZ$0 00429410 f   ObfuscateStrings.cpp.obj
 0001:00028410       __unwindfunclet$?flush@?$basic_ostream@_WU?$char_traits@_W@std@@@std@@QAEAAV12@XZ$0 00429410 f   ObfuscateStrings.cpp.obj
 0001:00028418       __unwindfunclet$?flush@?$basic_ostream@DU?$char_traits@D@std@@@std@@QAEAAV12@XZ$2 00429418 f   ObfuscateStrings.cpp.obj
 0001:00028418       __unwindfunclet$?flush@?$basic_ostream@_WU?$char_traits@_W@std@@@std@@QAEAAV12@XZ$2 00429418 f   ObfuscateStrings.cpp.obj
 0001:0002841e       __unwindfunclet$?flush@?$basic_ostream@_WU?$char_traits@_W@std@@@std@@QAEAAV12@XZ$3 0042941e f   ObfuscateStrings.cpp.obj
 0001:0002841e       __unwindfunclet$?flush@?$basic_ostream@DU?$char_traits@D@std@@@std@@QAEAAV12@XZ$3 0042941e f   ObfuscateStrings.cpp.obj
 0001:00028424       __ehhandler$?flush@?$basic_ostream@DU?$char_traits@D@std@@@std@@QAEAAV12@XZ 00429424 f   ObfuscateStrings.cpp.obj
 0001:00028424       __ehhandler$?flush@?$basic_ostream@_WU?$char_traits@_W@std@@@std@@QAEAAV12@XZ 00429424 f   ObfuscateStrings.cpp.obj
 0001:00028440       __unwindfunclet$_main$0    00429440 f   ObfuscateStrings.cpp.obj
 0001:00028448       __unwindfunclet$_main$1    00429448 f   ObfuscateStrings.cpp.obj
 0001:00028450       __ehhandler$_main          00429450 f   ObfuscateStrings.cpp.obj
 0001:00028480       __unwindfunclet$??$?H_WU?$char_traits@_W@std@@V?$allocator@_W@1@@std@@YA?AV?$basic_string@_WU?$char_traits@_W@std@@V?$allocator@_W@2@@0@ABV10@PB_W@Z$0 00429480 f   StringScanner.cpp.obj
 0001:00028499       __ehhandler$??$?H_WU?$char_traits@_W@std@@V?$allocator@_W@1@@std@@YA?AV?$basic_string@_WU?$char_traits@_W@std@@V?$allocator@_W@2@@0@ABV10@PB_W@Z 00429499 f   StringScanner.cpp.obj
 0001:000284c0       __unwindfunclet$??0?$basic_fstream@DU?$char_traits@D@std@@@std@@QAE@ABV?$basic_string@_WU?$char_traits@_W@std@@V?$allocator@_W@2@@1@HH@Z$0 004294c0 f   StringScanner.cpp.obj
 0001:000284dc       __unwindfunclet$??0?$basic_fstream@DU?$char_traits@D@std@@@std@@QAE@ABV?$basic_string@_WU?$char_traits@_W@std@@V?$allocator@_W@2@@1@HH@Z$1 004294dc f   StringScanner.cpp.obj
 0001:000284e7       __unwindfunclet$??0?$basic_fstream@DU?$char_traits@D@std@@@std@@QAE@ABV?$basic_string@_WU?$char_traits@_W@std@@V?$allocator@_W@2@@1@HH@Z$2 004294e7 f   StringScanner.cpp.obj
 0001:000284f2       __ehhandler$??0?$basic_fstream@DU?$char_traits@D@std@@@std@@QAE@ABV?$basic_string@_WU?$char_traits@_W@std@@V?$allocator@_W@2@@1@HH@Z 004294f2 f   StringScanner.cpp.obj
 0001:00028510       __unwindfunclet$??0?$basic_iostream@DU?$char_traits@D@std@@@std@@QAE@PAV?$basic_streambuf@DU?$char_traits@D@std@@@1@@Z$0 00429510 f   StringScanner.cpp.obj
 0001:0002852c       __unwindfunclet$??0?$basic_iostream@DU?$char_traits@D@std@@@std@@QAE@PAV?$basic_streambuf@DU?$char_traits@D@std@@@1@@Z$1 0042952c f   StringScanner.cpp.obj
 0001:00028537       __ehhandler$??0?$basic_iostream@DU?$char_traits@D@std@@@std@@QAE@PAV?$basic_streambuf@DU?$char_traits@D@std@@@1@@Z 00429537 f   StringScanner.cpp.obj
 0001:00028560       __ehhandler$??0?$vector@U?$pair@HH@std@@V?$allocator@U?$pair@HH@std@@@2@@std@@QAE@ABV01@@Z 00429560 f   StringScanner.cpp.obj
 0001:00028580       __unwindfunclet$??1?$basic_filebuf@DU?$char_traits@D@std@@@std@@UAE@XZ$2 00429580 f   StringScanner.cpp.obj
 0001:00028580       __unwindfunclet$??_G?$basic_fstream@DU?$char_traits@D@std@@@std@@UAEPAXI@Z$2 00429580 f   StringScanner.cpp.obj
 0001:00028580       __unwindfunclet$??_G?$basic_streambuf@DU?$char_traits@D@std@@@std@@UAEPAXI@Z$2 00429580 f   StringScanner.cpp.obj
 0001:00028586       __ehhandler$??1?$basic_filebuf@DU?$char_traits@D@std@@@std@@UAE@XZ 00429586 f   StringScanner.cpp.obj
 0001:00028586       __ehhandler$??_G?$basic_streambuf@DU?$char_traits@D@std@@@std@@UAEPAXI@Z 00429586 f   StringScanner.cpp.obj
 0001:00028586       __ehhandler$??_G?$basic_fstream@DU?$char_traits@D@std@@@std@@UAEPAXI@Z 00429586 f   StringScanner.cpp.obj
 0001:000285b0       __unwindfunclet$??_G?$basic_ios@DU?$char_traits@D@std@@@std@@UAEPAXI@Z$1 004295b0 f   StringScanner.cpp.obj
 0001:000285b0       __unwindfunclet$??_D?$basic_fstream@DU?$char_traits@D@std@@@std@@QAEXXZ$1 004295b0 f   StringScanner.cpp.obj
 0001:000285b0       __unwindfunclet$??1sentry@?$basic_ostream@DU?$char_traits@D@std@@@std@@QAE@XZ$0 004295b0 f   ObfuscateStrings.cpp.obj
 0001:000285b0       __unwindfunclet$??_G?$basic_ios@_WU?$char_traits@_W@std@@@std@@UAEPAXI@Z$1 004295b0 f   libcpmt:wcout.obj
 0001:000285b0       __unwindfunclet$??_G?$basic_ostream@DU?$char_traits@D@std@@@std@@UAEPAXI@Z$3 004295b0 f   StringScanner.cpp.obj
 0001:000285b0       __unwindfunclet$??_Gios_base@std@@UAEPAXI@Z$0 004295b0 f   StringScanner.cpp.obj
 0001:000285b0       __unwindfunclet$??_G?$basic_istream@DU?$char_traits@D@std@@@std@@UAEPAXI@Z$3 004295b0 f   StringScanner.cpp.obj
 0001:000285b0       __unwindfunclet$??1sentry@?$basic_ostream@_WU?$char_traits@_W@std@@@std@@QAE@XZ$0 004295b0 f   ObfuscateStrings.cpp.obj
 0001:000285b6       __ehhandler$??1sentry@?$basic_ostream@_WU?$char_traits@_W@std@@@std@@QAE@XZ 004295b6 f   ObfuscateStrings.cpp.obj
 0001:000285b6       __ehhandler$??_D?$basic_fstream@DU?$char_traits@D@std@@@std@@QAEXXZ 004295b6 f   StringScanner.cpp.obj
 0001:000285b6       __ehhandler$??_G?$basic_istream@DU?$char_traits@D@std@@@std@@UAEPAXI@Z 004295b6 f   StringScanner.cpp.obj
 0001:000285b6       __ehhandler$??_Gios_base@std@@UAEPAXI@Z 004295b6 f   StringScanner.cpp.obj
 0001:000285b6       __ehhandler$??_G?$basic_ios@DU?$char_traits@D@std@@@std@@UAEPAXI@Z 004295b6 f   StringScanner.cpp.obj
 0001:000285b6       __ehhandler$??1sentry@?$basic_ostream@DU?$char_traits@D@std@@@std@@QAE@XZ 004295b6 f   ObfuscateStrings.cpp.obj
 0001:000285b6       __ehhandler$??_G?$basic_ostream@DU?$char_traits@D@std@@@std@@UAEPAXI@Z 004295b6 f   StringScanner.cpp.obj
 0001:000285b6       __ehhandler$??_G?$basic_ios@_WU?$char_traits@_W@std@@@std@@UAEPAXI@Z 004295b6 f   libcpmt:wcout.obj
 0001:000285e0       __unwindfunclet$??0system_error@std@@QAE@Verror_code@1@PBD@Z$0 004295e0 f   ObfuscateStrings.cpp.obj
 0001:000285e0       __unwindfunclet$?FillError@StringScanner@@AAEXPB_W@Z$0 004295e0 f   StringScanner.cpp.obj
 0001:000285e8       __ehhandler$??0system_error@std@@QAE@Verror_code@1@PBD@Z 004295e8 f   ObfuscateStrings.cpp.obj
 0001:000285e8       __ehhandler$?FillError@StringScanner@@AAEXPB_W@Z 004295e8 f   StringScanner.cpp.obj
 0001:00028610       __unwindfunclet$?ObfuscateWStringInBuffer@StringScanner@@AAEXPADV?$vector@U?$pair@HH@std@@V?$allocator@U?$pair@HH@std@@@2@@std@@@Z$0 00429610 f   StringScanner.cpp.obj
 0001:00028618       __ehhandler$?ObfuscateWStringInBuffer@StringScanner@@AAEXPADV?$vector@U?$pair@HH@std@@V?$allocator@U?$pair@HH@std@@@2@@std@@@Z 00429618 f   StringScanner.cpp.obj
 0001:00028640       __unwindfunclet$?Scan@StringScanner@@QAE_NABUarguments@@@Z$0 00429640 f   StringScanner.cpp.obj
 0001:00028648       __unwindfunclet$?Scan@StringScanner@@QAE_NABUarguments@@@Z$1 00429648 f   StringScanner.cpp.obj
 0001:00028650       __unwindfunclet$?Scan@StringScanner@@QAE_NABUarguments@@@Z$2 00429650 f   StringScanner.cpp.obj
 0001:00028658       __unwindfunclet$?Scan@StringScanner@@QAE_NABUarguments@@@Z$3 00429658 f   StringScanner.cpp.obj
 0001:00028660       __unwindfunclet$?Scan@StringScanner@@QAE_NABUarguments@@@Z$4 00429660 f   StringScanner.cpp.obj
 0001:0002866b       __unwindfunclet$?Scan@StringScanner@@QAE_NABUarguments@@@Z$5 0042966b f   StringScanner.cpp.obj
 0001:00028673       __unwindfunclet$?Scan@StringScanner@@QAE_NABUarguments@@@Z$6 00429673 f   StringScanner.cpp.obj
 0001:0002867e       __unwindfunclet$?Scan@StringScanner@@QAE_NABUarguments@@@Z$276 0042967e f   StringScanner.cpp.obj
 0001:00028684       __unwindfunclet$?Scan@StringScanner@@QAE_NABUarguments@@@Z$7 00429684 f   StringScanner.cpp.obj
 0001:0002868c       __unwindfunclet$?Scan@StringScanner@@QAE_NABUarguments@@@Z$8 0042968c f   StringScanner.cpp.obj
 0001:00028694       __unwindfunclet$?Scan@StringScanner@@QAE_NABUarguments@@@Z$563 00429694 f   StringScanner.cpp.obj
 0001:0002869a       __ehhandler$?Scan@StringScanner@@QAE_NABUarguments@@@Z 0042969a f   StringScanner.cpp.obj
 0001:000286d0       __unwindfunclet$?_Getcat@?$codecvt@DDU_Mbstatet@@@std@@SAIPAPBVfacet@locale@2@PBV42@@Z$0 004296d0 f   StringScanner.cpp.obj
 0001:000286d0       __unwindfunclet$?_Getcat@?$num_put@DV?$ostreambuf_iterator@DU?$char_traits@D@std@@@std@@@std@@SAIPAPBVfacet@locale@2@PBV42@@Z$0 004296d0 f   ObfuscateStrings.cpp.obj
 0001:000286df       __ehhandler$?_Getcat@?$num_put@DV?$ostreambuf_iterator@DU?$char_traits@D@std@@@std@@@std@@SAIPAPBVfacet@locale@2@PBV42@@Z 004296df f   ObfuscateStrings.cpp.obj
 0001:000286df       __ehhandler$?_Getcat@?$codecvt@DDU_Mbstatet@@@std@@SAIPAPBVfacet@locale@2@PBV42@@Z 004296df f   StringScanner.cpp.obj
 0001:00028700       __unwindfunclet$?_Ipfx@?$basic_istream@DU?$char_traits@D@std@@@std@@QAE_N_N@Z$2 00429700 f   StringScanner.cpp.obj
 0001:00028708       __unwindfunclet$?_Ipfx@?$basic_istream@DU?$char_traits@D@std@@@std@@QAE_N_N@Z$3 00429708 f   StringScanner.cpp.obj
 0001:0002870e       __ehhandler$?_Ipfx@?$basic_istream@DU?$char_traits@D@std@@@std@@QAE_N_N@Z 0042970e f   StringScanner.cpp.obj
 0001:00028730       __ehhandler$?_Reallocate@?$vector@U?$pair@HH@std@@V?$allocator@U?$pair@HH@std@@@2@@std@@IAEXI@Z 00429730 f   StringScanner.cpp.obj
 0001:00028750       __unwindfunclet$??0?$basic_streambuf@DU?$char_traits@D@std@@@std@@IAE@XZ$0 00429750 f   StringScanner.cpp.obj
 0001:00028750       __unwindfunclet$?getloc@ios_base@std@@QBE?AVlocale@2@XZ$1 00429750 f   ObfuscateStrings.cpp.obj
 0001:00028750       __unwindfunclet$?getloc@?$basic_streambuf@DU?$char_traits@D@std@@@std@@QBE?AVlocale@2@XZ$1 00429750 f   StringScanner.cpp.obj
 0001:00028750       __unwindfunclet$?_Init@ios_base@std@@IAEXXZ$0 00429750 f   StringScanner.cpp.obj
 0001:00028756       __ehhandler$??0?$basic_streambuf@DU?$char_traits@D@std@@@std@@IAE@XZ 00429756 f   StringScanner.cpp.obj
 0001:00028756       __ehhandler$?getloc@?$basic_streambuf@DU?$char_traits@D@std@@@std@@QBE?AVlocale@2@XZ 00429756 f   StringScanner.cpp.obj
 0001:00028756       __ehhandler$?getloc@ios_base@std@@QBE?AVlocale@2@XZ 00429756 f   ObfuscateStrings.cpp.obj
 0001:00028756       __ehhandler$?_Init@ios_base@std@@IAEXXZ 00429756 f   StringScanner.cpp.obj
 0001:00028780       __unwindfunclet$?open@?$basic_filebuf@DU?$char_traits@D@std@@@std@@QAEPAV12@PB_WHH@Z$0 00429780 f   StringScanner.cpp.obj
 0001:00028780       __unwindfunclet$?init@?$basic_ios@DU?$char_traits@D@std@@@std@@IAEXPAV?$basic_streambuf@DU?$char_traits@D@std@@@2@_N@Z$0 00429780 f   StringScanner.cpp.obj
 0001:00028788       __unwindfunclet$?open@?$basic_filebuf@DU?$char_traits@D@std@@@std@@QAEPAV12@PB_WHH@Z$2 00429788 f   StringScanner.cpp.obj
 0001:00028788       __unwindfunclet$?init@?$basic_ios@DU?$char_traits@D@std@@@std@@IAEXPAV?$basic_streambuf@DU?$char_traits@D@std@@@2@_N@Z$1 00429788 f   StringScanner.cpp.obj
 0001:0002878e       __ehhandler$?init@?$basic_ios@DU?$char_traits@D@std@@@std@@IAEXPAV?$basic_streambuf@DU?$char_traits@D@std@@@2@_N@Z 0042978e f   StringScanner.cpp.obj
 0001:0002878e       __ehhandler$?open@?$basic_filebuf@DU?$char_traits@D@std@@@std@@QAEPAV12@PB_WHH@Z 0042978e f   StringScanner.cpp.obj
 0001:000287b0       __unwindfunclet$?uflow@?$basic_filebuf@DU?$char_traits@D@std@@@std@@MAEHXZ$0 004297b0 f   StringScanner.cpp.obj
 0001:000287b0       __unwindfunclet$?overflow@?$basic_filebuf@DU?$char_traits@D@std@@@std@@MAEHH@Z$0 004297b0 f   StringScanner.cpp.obj
 0001:000287b8       __ehhandler$?uflow@?$basic_filebuf@DU?$char_traits@D@std@@@std@@MAEHXZ 004297b8 f   StringScanner.cpp.obj
 0001:000287b8       __ehhandler$?overflow@?$basic_filebuf@DU?$char_traits@D@std@@@std@@MAEHH@Z 004297b8 f   StringScanner.cpp.obj
 0001:000287e0       __unwindfunclet$?read@?$basic_istream@DU?$char_traits@D@std@@@std@@QAEAAV12@PAD_J@Z$3 004297e0 f   StringScanner.cpp.obj
 0001:000287e8       __unwindfunclet$?read@?$basic_istream@DU?$char_traits@D@std@@@std@@QAEAAV12@PAD_J@Z$2 004297e8 f   StringScanner.cpp.obj
 0001:000287f0       __unwindfunclet$?read@?$basic_istream@DU?$char_traits@D@std@@@std@@QAEAAV12@PAD_J@Z$17 004297f0 f   StringScanner.cpp.obj
 0001:000287f6       __ehhandler$?read@?$basic_istream@DU?$char_traits@D@std@@@std@@QAEAAV12@PAD_J@Z 004297f6 f   StringScanner.cpp.obj
 0001:00028820       __unwindfunclet$?seekg@?$basic_istream@DU?$char_traits@D@std@@@std@@QAEAAV12@_JH@Z$1 00429820 f   StringScanner.cpp.obj
 0001:00028828       __unwindfunclet$?seekg@?$basic_istream@DU?$char_traits@D@std@@@std@@QAEAAV12@_JH@Z$0 00429828 f   StringScanner.cpp.obj
 0001:00028830       __unwindfunclet$?seekg@?$basic_istream@DU?$char_traits@D@std@@@std@@QAEAAV12@_JH@Z$3 00429830 f   StringScanner.cpp.obj
 0001:00028836       __ehhandler$?seekg@?$basic_istream@DU?$char_traits@D@std@@@std@@QAEAAV12@_JH@Z 00429836 f   StringScanner.cpp.obj
 0001:00028860       __unwindfunclet$?tellg@?$basic_istream@DU?$char_traits@D@std@@@std@@QAE?AV?$fpos@U_Mbstatet@@@2@XZ$1 00429860 f   StringScanner.cpp.obj
 0001:00028868       __unwindfunclet$?tellg@?$basic_istream@DU?$char_traits@D@std@@@std@@QAE?AV?$fpos@U_Mbstatet@@@2@XZ$0 00429868 f   StringScanner.cpp.obj
 0001:00028870       __unwindfunclet$?tellg@?$basic_istream@DU?$char_traits@D@std@@@std@@QAE?AV?$fpos@U_Mbstatet@@@2@XZ$3 00429870 f   StringScanner.cpp.obj
 0001:00028876       __unwindfunclet$?tellg@?$basic_istream@DU?$char_traits@D@std@@@std@@QAE?AV?$fpos@U_Mbstatet@@@2@XZ$5 00429876 f   StringScanner.cpp.obj
 0001:0002887c       __ehhandler$?tellg@?$basic_istream@DU?$char_traits@D@std@@@std@@QAE?AV?$fpos@U_Mbstatet@@@2@XZ 0042987c f   StringScanner.cpp.obj
 0001:000288a0       __unwindfunclet$?write@?$basic_ostream@DU?$char_traits@D@std@@@std@@QAEAAV12@PBD_J@Z$3 004298a0 f   StringScanner.cpp.obj
 0001:000288a8       __unwindfunclet$?write@?$basic_ostream@DU?$char_traits@D@std@@@std@@QAEAAV12@PBD_J@Z$2 004298a8 f   StringScanner.cpp.obj
 0001:000288b0       __unwindfunclet$?write@?$basic_ostream@DU?$char_traits@D@std@@@std@@QAEAAV12@PBD_J@Z$16 004298b0 f   StringScanner.cpp.obj
 0001:000288b6       __unwindfunclet$?write@?$basic_ostream@DU?$char_traits@D@std@@@std@@QAEAAV12@PBD_J@Z$17 004298b6 f   StringScanner.cpp.obj
 0001:000288bc       __ehhandler$?write@?$basic_ostream@DU?$char_traits@D@std@@@std@@QAEAAV12@PBD_J@Z 004298bc f   StringScanner.cpp.obj
 0001:000288d7       __ehhandler$??1_Fac_node@std@@QAE@XZ 004298d7 f   libcpmt:locale0.obj
 0001:00028900       __ehhandler$??1?$basic_filebuf@_WU?$char_traits@_W@std@@@std@@UAE@XZ 00429900 f   libcpmt:wcout.obj
 0001:00028900       __ehhandler$??1_Init_atexit@@QAE@XZ 00429900 f   libcpmt:iosptrs.obj
 0001:00028900       __ehhandler$??1_Locimp@locale@std@@MAE@XZ 00429900 f   libcpmt:locale0.obj
 0001:00028900       __ehhandler$??1_Locinfo@std@@QAE@XZ 00429900 f   ObfuscateStrings.cpp.obj
 0001:0002891b       __unwindfunclet$?_Init@locale@std@@CAPAV_Locimp@12@_N@Z$0 0042991b f   libcpmt:locale0.obj
 0001:00028923       __ehhandler$?_Init@locale@std@@CAPAV_Locimp@12@_N@Z 00429923 f   libcpmt:locale0.obj
 0001:0002893e       __unwindfunclet$?_Locimp_dtor@_Locimp@locale@std@@CAXPAV123@@Z$0 0042993e f   libcpmt:locale0.obj
 0001:00028946       __ehhandler$?_Locimp_dtor@_Locimp@locale@std@@CAXPAV123@@Z 00429946 f   libcpmt:locale0.obj
 0001:00028961       __unwindfunclet$??0?$basic_ostream@DU?$char_traits@D@std@@@std@@QAE@PAV?$basic_streambuf@DU?$char_traits@D@std@@@1@_N@Z$0 00429961 f   libcpmt:cout.obj
 0001:0002897d       __ehhandler$??0?$basic_ostream@DU?$char_traits@D@std@@@std@@QAE@PAV?$basic_streambuf@DU?$char_traits@D@std@@@1@_N@Z 0042997d f   libcpmt:cout.obj
 0001:00028998       __unwindfunclet$??$use_facet@V?$codecvt@_WDU_Mbstatet@@@std@@@std@@YAABV?$codecvt@_WDU_Mbstatet@@@0@ABVlocale@0@@Z$0 00429998 f   libcpmt:wcout.obj
 0001:000289a0       __ehhandler$??$use_facet@V?$codecvt@_WDU_Mbstatet@@@std@@@std@@YAABV?$codecvt@_WDU_Mbstatet@@@0@ABVlocale@0@@Z 004299a0 f   libcpmt:wcout.obj
 0001:000289bb       __unwindfunclet$??0?$basic_ostream@_WU?$char_traits@_W@std@@@std@@QAE@PAV?$basic_streambuf@_WU?$char_traits@_W@std@@@1@_N@Z$0 004299bb f   libcpmt:wcout.obj
 0001:000289d7       __ehhandler$??0?$basic_ostream@_WU?$char_traits@_W@std@@@std@@QAE@PAV?$basic_streambuf@_WU?$char_traits@_W@std@@@1@_N@Z 004299d7 f   libcpmt:wcout.obj
 0001:000289f2       __unwindfunclet$??0?$basic_streambuf@_WU?$char_traits@_W@std@@@std@@IAE@XZ$0 004299f2 f   libcpmt:wcout.obj
 0001:000289f8       __ehhandler$??0?$basic_streambuf@_WU?$char_traits@_W@std@@@std@@IAE@XZ 004299f8 f   libcpmt:wcout.obj
 0001:00028a20       __unwindfunclet$??_D?$basic_ostream@_WU?$char_traits@_W@std@@@std@@QAEXXZ$2 00429a20 f   libcpmt:wcout.obj
 0001:00028a20       __unwindfunclet$??1?$basic_ios@DU?$char_traits@D@std@@@std@@UAE@XZ$0 00429a20 f   StringScanner.cpp.obj
 0001:00028a20       __unwindfunclet$??_D?$basic_iostream@DU?$char_traits@D@std@@@std@@QAEXXZ$4 00429a20 f   StringScanner.cpp.obj
 0001:00028a20       __unwindfunclet$??_D?$basic_ostream@DU?$char_traits@D@std@@@std@@QAEXXZ$2 00429a20 f   libcpmt:cout.obj
 0001:00028a20       __unwindfunclet$??1?$basic_ios@_WU?$char_traits@_W@std@@@std@@UAE@XZ$0 00429a20 f   libcpmt:wcout.obj
 0001:00028a20       __unwindfunclet$??1sentry@?$basic_istream@DU?$char_traits@D@std@@@std@@QAE@XZ$0 00429a20 f   StringScanner.cpp.obj
 0001:00028a26       __ehhandler$??_D?$basic_ostream@DU?$char_traits@D@std@@@std@@QAEXXZ 00429a26 f   libcpmt:cout.obj
 0001:00028a26       __ehhandler$??1?$basic_ios@_WU?$char_traits@_W@std@@@std@@UAE@XZ 00429a26 f   libcpmt:wcout.obj
 0001:00028a26       __ehhandler$??1sentry@?$basic_istream@DU?$char_traits@D@std@@@std@@QAE@XZ 00429a26 f   StringScanner.cpp.obj
 0001:00028a26       __ehhandler$??_D?$basic_iostream@DU?$char_traits@D@std@@@std@@QAEXXZ 00429a26 f   StringScanner.cpp.obj
 0001:00028a26       __ehhandler$??_D?$basic_ostream@_WU?$char_traits@_W@std@@@std@@QAEXXZ 00429a26 f   libcpmt:wcout.obj
 0001:00028a26       __ehhandler$??1?$basic_ios@DU?$char_traits@D@std@@@std@@UAE@XZ 00429a26 f   StringScanner.cpp.obj
 0001:00028a50       __unwindfunclet$?_Endwrite@?$basic_filebuf@DU?$char_traits@D@std@@@std@@IAE_NXZ$0 00429a50 f   StringScanner.cpp.obj
 0001:00028a50       __unwindfunclet$?_Endwrite@?$basic_filebuf@_WU?$char_traits@_W@std@@@std@@IAE_NXZ$0 00429a50 f   libcpmt:wcout.obj
 0001:00028a58       __ehhandler$?_Endwrite@?$basic_filebuf@_WU?$char_traits@_W@std@@@std@@IAE_NXZ 00429a58 f   libcpmt:wcout.obj
 0001:00028a58       __ehhandler$?_Endwrite@?$basic_filebuf@DU?$char_traits@D@std@@@std@@IAE_NXZ 00429a58 f   StringScanner.cpp.obj
 0001:00028a7d       __unwindfunclet$?_Getcat@?$codecvt@_WDU_Mbstatet@@@std@@SAIPAPBVfacet@locale@2@PBV42@@Z$0 00429a7d f   libcpmt:wcout.obj
 0001:00028a8a       __ehhandler$?_Getcat@?$codecvt@_WDU_Mbstatet@@@std@@SAIPAPBVfacet@locale@2@PBV42@@Z 00429a8a f   libcpmt:wcout.obj
 0001:00028aa5       __unwindfunclet$?overflow@?$basic_filebuf@_WU?$char_traits@_W@std@@@std@@MAEGG@Z$0 00429aa5 f   libcpmt:wcout.obj
 0001:00028aad       __ehhandler$?overflow@?$basic_filebuf@_WU?$char_traits@_W@std@@@std@@MAEGG@Z 00429aad f   libcpmt:wcout.obj
 0001:00028ad2       __unwindfunclet$?uflow@?$basic_filebuf@_WU?$char_traits@_W@std@@@std@@MAEGXZ$0 00429ad2 f   libcpmt:wcout.obj
 0001:00028ada       __ehhandler$?uflow@?$basic_filebuf@_WU?$char_traits@_W@std@@@std@@MAEGXZ 00429ada f   libcpmt:wcout.obj
 0001:00028aff       __unwindfunclet$?widen@?$basic_ios@_WU?$char_traits@_W@std@@@std@@QBE_WD@Z$0 00429aff f   libcpmt:wcout.obj
 0001:00028b07       __ehhandler$?widen@?$basic_ios@_WU?$char_traits@_W@std@@@std@@QBE_WD@Z 00429b07 f   libcpmt:wcout.obj
 0001:00028b22       __ehhandler$?CallUnexpected@@YAXPBU_s_ESTypeList@@@Z 00429b22 f   libvcruntime:frame.obj
 0001:00028b50       ??__FsEndTag@@YAXXZ        00429b50 f   StringScanner.cpp.obj
 0001:00028bb0       ??__FsStartTag@@YAXXZ      00429bb0 f   StringScanner.cpp.obj
 0001:00028c10       ??__FsWEndTag@@YAXXZ       00429c10 f   StringScanner.cpp.obj
 0001:00028c70       ??__FsWStartTag@@YAXXZ     00429c70 f   StringScanner.cpp.obj
 0001:00028cc8       ??__Finitlocks@std@@YAXXZ  00429cc8 f   libcpmt:xlock.obj
 0001:00028cd2       ??__F_Fac_tidy_reg@std@@YAXXZ 00429cd2 f   libcpmt:locale0.obj
 0001:00028cdc       ??__Fclassic_locale@std@@YAXXZ 00429cdc f   libcpmt:locale0.obj
 0001:00028ce6       ??__Fcout@std@@YAXXZ       00429ce6 f   libcpmt:cout.obj
 0001:00028cf0       ??__Ffout@std@@YAXXZ       00429cf0 f   libcpmt:cout.obj
 0001:00028cfa       ??__Finitlocks@@YAXXZ      00429cfa f   libcpmt:cout.obj
 0001:00028d04       ??__Finitlocks@@YAXXZ      00429d04 f   libcpmt:wcout.obj
 0001:00028d0e       ??__Fwcout@std@@YAXXZ      00429d0e f   libcpmt:wcout.obj
 0001:00028d18       ??__Fwfout@std@@YAXXZ      00429d18 f   libcpmt:wcout.obj
 0001:00028d22       ??__Finit_atexit@@YAXXZ    00429d22 f   libcpmt:iosptrs.obj
 0001:00028d2c       ??__Finitlocks@std@@YAXXZ  00429d2c f   libcpmt:iosptrs.obj
 0002:00000158       ?pre_cpp_initializer@@3P6AXXZA 0042a158     LIBCMT:exe_main.obj
 0002:0000015c       ?initlocks$initializer$@std@@3P6AXXZA 0042a15c     libcpmt:xlock.obj
 0002:00000160       ?initlocks$initializer$@@3P6AXXZA 0042a160     libcpmt:cout.obj
 0002:00000164       ?fout$initializer$@std@@3P6AXXZA 0042a164     libcpmt:cout.obj
 0002:00000168       ?cout$initializer$@std@@3P6AXXZA 0042a168     libcpmt:cout.obj
 0002:0000016c       ?init_cout$initializer$@std@@3P6AXXZA 0042a16c     libcpmt:cout.obj
 0002:00000170       ?initlocks$initializer$@@3P6AXXZA 0042a170     libcpmt:wcout.obj
 0002:00000174       ?wfout$initializer$@std@@3P6AXXZA 0042a174     libcpmt:wcout.obj
 0002:00000178       ?wcout$initializer$@std@@3P6AXXZA 0042a178     libcpmt:wcout.obj
 0002:0000017c       ?init_wcout$initializer$@std@@3P6AXXZA 0042a17c     libcpmt:wcout.obj
 0002:00000180       ?initlocks$initializer$@std@@3P6AXXZA 0042a180     libcpmt:iosptrs.obj
 0002:00000184       ?init_atexit$initializer$@@3P6AXXZA 0042a184     libcpmt:iosptrs.obj
 0002:00000188       ?_Fac_tidy_reg$initializer$@std@@3P6AXXZA 0042a188     libcpmt:locale0.obj
 0002:0000018c       ?classic_locale$initializer$@std@@3P6AXXZA 0042a18c     libcpmt:locale0.obj
 0002:00000190       ?sStartTag$initializer$@@3P6AXXZA 0042a190     StringScanner.cpp.obj
 0002:00000194       ?sEndTag$initializer$@@3P6AXXZA 0042a194     StringScanner.cpp.obj
 0002:00000198       ?sWStartTag$initializer$@@3P6AXXZA 0042a198     StringScanner.cpp.obj
 0002:0000019c       ?sWEndTag$initializer$@@3P6AXXZA 0042a19c     StringScanner.cpp.obj
 0002:000001a8       ?pre_c_initializer@@3P6AHXZA 0042a1a8     LIBCMT:exe_main.obj
 0002:000001ac       ?post_pgo_initializer@@3P6AHXZA 0042a1ac     LIBCMT:exe_main.obj
 0002:000001b0       ?pinit@@3P6AHXZA           0042a1b0     libcpmt:winapisupp.obj
 0002:000001b4       ?__scrt_initialize_tss_var@@3P6AHXZA 0042a1b4     LIBCMT:thread_safe_statics.obj
 0002:00000d58       ?_Win_errtab@std@@3QBU_Win_errtab_t@1@B 0042ad58     libcpmt:syserror.obj
 0002:00000fa8       ?_Sys_errtab@std@@3QBU_Sys_errtab_t@1@B 0042afa8     libcpmt:syserror.obj
 0002:000014e8       ?mods@?1??_Xfsopen@std@@YAPAU_iobuf@@PB_WHH@Z@4QBQB_WB 0042b4e8     libcpmt:fiopen.obj
 0002:00001950       ?LcidToLocaleNameTable@@3QBULcidToLocaleName@@B 0042b950     libcpmt:winapinls.obj
 0002:00002070       ?LocaleNameToIndexTable@@3QBULocaleNameIndex@@B 0042c070     libcpmt:winapinls.obj
 0002:00003a08       _digits                    0042da08     libcpmt:xstoul.obj
 0002:00003a30       _ndigs                     0042da30     libcpmt:xstoul.obj
 0002:00003a58       _digits                    0042da58     libcpmt:xstoull.obj
 0002:00003a80       _ndigs                     0042da80     libcpmt:xstoull.obj
 0002:00003ad4       _GS_ExceptionPointers      0042dad4     LIBCMT:gs_report.obj
 0002:00003afc       ?ExceptionTemplate@?1??_CxxThrowException@@9@8@4UEHExceptionRecord@@B 0042dafc     libvcruntime:throw.obj
 0002:00003b1c       ?module_names@?A0x89697e75@@3QBQB_WB 0042db1c     libvcruntime:winapi_downlevel.obj
 0002:00003bcc       ?candidate_modules@?1??try_get_FlsAlloc@@YAP6GKP6GXPAX@Z@ZXZ@4QBW4module_id@?A0x89697e75@@B 0042dbcc     libvcruntime:winapi_downlevel.obj
 0002:00003bd4       ?candidate_modules@?1??try_get_FlsFree@@YAP6GHK@ZXZ@4QBW4module_id@?A0x89697e75@@B 0042dbd4     libvcruntime:winapi_downlevel.obj
 0002:00003bdc       ?candidate_modules@?1??try_get_FlsGetValue@@YAP6GPAXK@ZXZ@4QBW4module_id@?A0x89697e75@@B 0042dbdc     libvcruntime:winapi_downlevel.obj
 0002:00003be4       ?candidate_modules@?1??try_get_FlsSetValue@@YAP6GHKPAX@ZXZ@4QBW4module_id@?A0x89697e75@@B 0042dbe4     libvcruntime:winapi_downlevel.obj
 0002:00003bec       ?candidate_modules@?1??try_get_InitializeCriticalSectionEx@@YAP6GHPAU_RTL_CRITICAL_SECTION@@KK@ZXZ@4QBW4module_id@?A0x89697e75@@B 0042dbec     libvcruntime:winapi_downlevel.obj
 0002:00003bf8       ?tokenTable@@3QBQBDB       0042dbf8     libvcruntime:undname.obj
 0002:00003c30       ?nameTable@@3QBQBDB        0042dc30     libvcruntime:undname.obj
 0002:00003d74       ?rttiTable@@3QBQBDB        0042dd74     libvcruntime:undname.obj
 0002:000043d8       ?errtable@@3QBUerrentry@?A0x31fdb9ec@@B 0042e3d8     libucrt:errno.obj
 0002:00005710       POW_name                   0042f710     libucrt:pow.obj
 0002:000057e8       ___acrt_initializers       0042f7e8     libucrt:initialization.obj
 0002:00005928       __first_127char            0042f928     libucrt:wsetlocale.obj
 0002:000059d0       ?_names@?1??_get_fname@@9@9 0042f9d0     libucrt:fpexcept.obj
 0002:00005b98       _over                      0042fb98     libucrt:fpctrl.obj
 0002:00005ba4       _under                     0042fba4     libucrt:fpctrl.obj
 0002:000060b0       ?module_names@?A0x391cf84c@@3QBQB_WB 004300b0     libucrt:winapi_thunks.obj
 0002:000064f0       ?candidate_modules@?1??try_get_AreFileApisANSI@@YAP6GHXZXZ@4QBW4module_id@?A0x391cf84c@@B 004304f0     libucrt:winapi_thunks.obj
 0002:00006504       ?candidate_modules@?1??try_get_CompareStringEx@@YAP6GHPB_WK0H0HPAU_nlsversioninfo@@PAXJ@ZXZ@4QBW4module_id@?A0x391cf84c@@B 00430504     libucrt:winapi_thunks.obj
 0002:0000650c       ?candidate_modules@?1??try_get_EnumSystemLocalesEx@@YAP6GHP6GHPA_WKJ@ZKJPAX@ZXZ@4QBW4module_id@?A0x391cf84c@@B 0043050c     libucrt:winapi_thunks.obj
 0002:00006528       ?candidate_modules@?1??try_get_FlsAlloc@@YAP6GKP6GXPAX@Z@ZXZ@4QBW4module_id@?A0x391cf84c@@B 00430528     libucrt:winapi_thunks.obj
 0002:00006530       ?candidate_modules@?1??try_get_FlsFree@@YAP6GHK@ZXZ@4QBW4module_id@?A0x391cf84c@@B 00430530     libucrt:winapi_thunks.obj
 0002:00006538       ?candidate_modules@?1??try_get_FlsGetValue@@YAP6GPAXK@ZXZ@4QBW4module_id@?A0x391cf84c@@B 00430538     libucrt:winapi_thunks.obj
 0002:00006540       ?candidate_modules@?1??try_get_FlsSetValue@@YAP6GHKPAX@ZXZ@4QBW4module_id@?A0x391cf84c@@B 00430540     libucrt:winapi_thunks.obj
 0002:00006548       ?candidate_modules@?1??try_get_GetDateFormatEx@@YAP6GHPB_WKPBU_SYSTEMTIME@@0PA_WH0@ZXZ@4QBW4module_id@?A0x391cf84c@@B 00430548     libucrt:winapi_thunks.obj
 0002:00006560       ?candidate_modules@?1??try_get_GetLocaleInfoEx@@YAP6GHPB_WKPA_WH@ZXZ@4QBW4module_id@?A0x391cf84c@@B 00430560     libucrt:winapi_thunks.obj
 0002:00006568       ?candidate_modules@?1??try_get_GetTimeFormatEx@@YAP6GHPB_WKPBU_SYSTEMTIME@@0PA_WH@ZXZ@4QBW4module_id@?A0x391cf84c@@B 00430568     libucrt:winapi_thunks.obj
 0002:00006580       ?candidate_modules@?1??try_get_GetUserDefaultLocaleName@@YAP6GHPA_WH@ZXZ@4QBW4module_id@?A0x391cf84c@@B 00430580     libucrt:winapi_thunks.obj
 0002:000065a4       ?candidate_modules@?1??try_get_InitializeCriticalSectionEx@@YAP6GHPAU_RTL_CRITICAL_SECTION@@KK@ZXZ@4QBW4module_id@?A0x391cf84c@@B 004305a4     libucrt:winapi_thunks.obj
 0002:000065ac       ?candidate_modules@?1??try_get_IsValidLocaleName@@YAP6GHPB_W@ZXZ@4QBW4module_id@?A0x391cf84c@@B 004305ac     libucrt:winapi_thunks.obj
 0002:000065c8       ?candidate_modules@?1??try_get_LCMapStringEx@@YAP6GHPB_WK0HPA_WHPAU_nlsversioninfo@@PAXJ@ZXZ@4QBW4module_id@?A0x391cf84c@@B 004305c8     libucrt:winapi_thunks.obj
 0002:000065d0       ?candidate_modules@?1??try_get_LCIDToLocaleName@@YAP6GHKPA_WHK@ZXZ@4QBW4module_id@?A0x391cf84c@@B 004305d0     libucrt:winapi_thunks.obj
 0002:000065ec       ?candidate_modules@?1??try_get_LocaleNameToLCID@@YAP6GKPB_WK@ZXZ@4QBW4module_id@?A0x391cf84c@@B 004305ec     libucrt:winapi_thunks.obj
 0002:00006608       ?candidate_modules@?1??try_get_AppPolicyGetProcessTerminationMethod@@YAP6GJPAXPAW4AppPolicyProcessTerminationMethod@@@ZXZ@4QBW4module_id@?A0x391cf84c@@B 00430608     libucrt:winapi_thunks.obj
 0002:00006670       Shifter                    00430670     libucrt:pow_pentium4.obj
 0002:00006680       SIGMASK                    00430680     libucrt:pow_pentium4.obj
 0002:00006690       ONEMASK                    00430690     libucrt:pow_pentium4.obj
 0002:000066a0       ABSVALMASK                 004306a0     libucrt:pow_pentium4.obj
 0002:000066b0       cev                        004306b0     libucrt:pow_pentium4.obj
 0002:000066d8       HALFSIG                    004306d8     libucrt:pow_pentium4.obj
 0002:000066e0       LHN                        004306e0     libucrt:pow_pentium4.obj
 0002:000066e8       sNaN                       004306e8     libucrt:pow_pentium4.obj
 0002:000066f0       INF                        004306f0     libucrt:pow_pentium4.obj
 0002:000066f8       NEG_INF                    004306f8     libucrt:pow_pentium4.obj
 0002:00006700       NEG_ZERO                   00430700     libucrt:pow_pentium4.obj
 0002:00006708       NEG_BIG                    00430708     libucrt:pow_pentium4.obj
 0002:00006710       POS_BIG                    00430710     libucrt:pow_pentium4.obj
 0002:00006718       EMIN                       00430718     libucrt:pow_pentium4.obj
 0002:00006720       QIND                       00430720     libucrt:pow_pentium4.obj
 0002:0000674e       _log2max                   0043074e     libucrt:87tran.obj
 0002:00006758       _smallarg                  00430758     libucrt:87tran.obj
 0002:00006762       _half                      00430762     libucrt:87tran.obj
 0002:000067ae       One                        004307ae     libucrt:87disp.obj
 0002:000067b6       Three                      004307b6     libucrt:87disp.obj
 0002:000067be       XAMtoTagTab                004307be     libucrt:87disp.obj
 0002:000067d0       One                        004307d0     libucrt:common.obj
 0002:000067e4       DblMax                     004307e4     libucrt:common.obj
 0002:000067ec       DblMin                     004307ec     libucrt:common.obj
 0002:000067f4       IeeeAdjO                   004307f4     libucrt:common.obj
 0002:000067fc       IeeeAdjU                   004307fc     libucrt:common.obj
 0002:00006804       _infinity                  00430804     libucrt:common.obj
 0002:0000680c       _zero                      0043080c     libucrt:common.obj
 0002:00006820       ?_mb_locale_names@@3QBQB_WB 00430820     libucrt:mbctype.obj
 0002:00007608       ?LcidToLocaleNameTable@?A0x881e4c05@@3QBULcidToLocaleName@1@B 00431608     libucrt:lcidtoname_downlevel.obj
 0002:00007d28       ?LocaleNameToIndexTable@?A0x881e4c05@@3QBULocaleNameIndex@1@B 00431d28     libucrt:lcidtoname_downlevel.obj
 0002:0000bcd0       LOG_name                   00435cd0     libucrt:log10.obj
 0002:0000bce0       _One                       00435ce0     libucrt:ceil_pentium4.obj
 0002:0000bcf0       _Bns                       00435cf0     libucrt:ceil_pentium4.obj
 0002:0000bd00       _Zero                      00435d00     libucrt:ceil_pentium4.obj
 0002:0000bd10       _S                         00435d10     libucrt:ceil_pentium4.obj
 0002:0000bd20       _NegZero                   00435d20     libucrt:ceil_pentium4.obj
 0002:0000bd40       emask                      00435d40     libucrt:log10_pentium4.obj
 0002:0000bd50       CC                         00435d50     libucrt:log10_pentium4.obj
 0002:0000bd60       Magic                      00435d60     libucrt:log10_pentium4.obj
 0002:0000bd70       hi_mask                    00435d70     libucrt:log10_pentium4.obj
 0002:0000bd80       LOG10_2                    00435d80     libucrt:log10_pentium4.obj
 0002:0000bd90       place_L                    00435d90     libucrt:log10_pentium4.obj
 0002:0000bdb0       One                        00435db0     libucrt:log10_pentium4.obj
 0002:0000bdc0       Zero                       00435dc0     libucrt:log10_pentium4.obj
 0002:0000bdd0       Two52                      00435dd0     libucrt:log10_pentium4.obj
 0002:0000bde0       Infs                       00435de0     libucrt:log10_pentium4.obj
 0002:0000bdf0       NaN                        00435df0     libucrt:log10_pentium4.obj
 0002:0000be00       coeff                      00435e00     libucrt:log10_pentium4.obj
 0002:0000d980       __catchsym$?_Copy@?$basic_string@DU?$char_traits@D@std@@V?$allocator@D@2@@std@@QAEXII@Z$111 00437980     ObfuscateStrings.cpp.obj
 0002:0000d990       __catchsym$?_Copy@?$basic_string@DU?$char_traits@D@std@@V?$allocator@D@2@@std@@QAEXII@Z$110 00437990     ObfuscateStrings.cpp.obj
 0002:0000d9a0       __unwindtable$?_Copy@?$basic_string@DU?$char_traits@D@std@@V?$allocator@D@2@@std@@QAEXII@Z 004379a0     ObfuscateStrings.cpp.obj
 0002:0000d9c0       __ehfuncinfo$?_Copy@?$basic_string@DU?$char_traits@D@std@@V?$allocator@D@2@@std@@QAEXII@Z 004379c0     ObfuscateStrings.cpp.obj
 0002:0000d9e4       __tryblocktable$?_Copy@?$basic_string@DU?$char_traits@D@std@@V?$allocator@D@2@@std@@QAEXII@Z 004379e4     ObfuscateStrings.cpp.obj
 0002:0000da0c       __ehfuncinfo$??0_Locinfo@std@@QAE@PBD@Z 00437a0c     ObfuscateStrings.cpp.obj
 0002:0000da30       __unwindtable$??0_Locinfo@std@@QAE@PBD@Z 00437a30     ObfuscateStrings.cpp.obj
 0002:0000da68       __ehfuncinfo$??1_Locinfo@std@@QAE@XZ 00437a68     ObfuscateStrings.cpp.obj
 0002:0000da68       __ehfuncinfo$??1_Init_atexit@@QAE@XZ 00437a68     libcpmt:iosptrs.obj
 0002:0000da68       __ehfuncinfo$??1_Sentry_base@?$basic_ostream@DU?$char_traits@D@std@@@std@@QAE@XZ 00437a68     ObfuscateStrings.cpp.obj
 0002:0000da68       __ehfuncinfo$??1_Sentry_base@?$basic_ostream@_WU?$char_traits@_W@std@@@std@@QAE@XZ 00437a68     ObfuscateStrings.cpp.obj
 0002:0000da68       __ehfuncinfo$??1_Sentry_base@?$basic_istream@DU?$char_traits@D@std@@@std@@QAE@XZ 00437a68     StringScanner.cpp.obj
 0002:0000da68       __ehfuncinfo$??1?$basic_filebuf@_WU?$char_traits@_W@std@@@std@@UAE@XZ 00437a68     libcpmt:wcout.obj
 0002:0000da68       __ehfuncinfo$??1locale@std@@QAE@XZ 00437a68     ObfuscateStrings.cpp.obj
 0002:0000da68       __ehfuncinfo$??1_Fac_node@std@@QAE@XZ 00437a68     libcpmt:locale0.obj
 0002:0000da68       __ehfuncinfo$??1_Locimp@locale@std@@MAE@XZ 00437a68     libcpmt:locale0.obj
 0002:0000da8c       __unwindtable$?_Getcat@?$ctype@D@std@@SAIPAPBVfacet@locale@2@PBV42@@Z 00437a8c     ObfuscateStrings.cpp.obj
 0002:0000da94       __ehfuncinfo$?_Getcat@?$ctype@D@std@@SAIPAPBVfacet@locale@2@PBV42@@Z 00437a94     ObfuscateStrings.cpp.obj
 0002:0000dab8       __unwindtable$??$use_facet@V?$ctype@_W@std@@@std@@YAABV?$ctype@_W@0@ABVlocale@0@@Z 00437ab8     ObfuscateStrings.cpp.obj
 0002:0000dab8       __unwindtable$??$use_facet@V?$codecvt@DDU_Mbstatet@@@std@@@std@@YAABV?$codecvt@DDU_Mbstatet@@@0@ABVlocale@0@@Z 00437ab8     StringScanner.cpp.obj
 0002:0000dab8       __unwindtable$??$use_facet@V?$numpunct@D@std@@@std@@YAABV?$numpunct@D@0@ABVlocale@0@@Z 00437ab8     ObfuscateStrings.cpp.obj
 0002:0000dab8       __unwindtable$??$use_facet@V?$ctype@D@std@@@std@@YAABV?$ctype@D@0@ABVlocale@0@@Z 00437ab8     ObfuscateStrings.cpp.obj
 0002:0000dab8       __unwindtable$??$use_facet@V?$num_put@DV?$ostreambuf_iterator@DU?$char_traits@D@std@@@std@@@std@@@std@@YAABV?$num_put@DV?$ostreambuf_iterator@DU?$char_traits@D@std@@@std@@@0@ABVlocale@0@@Z 00437ab8     ObfuscateStrings.cpp.obj
 0002:0000dac0       __ehfuncinfo$??$use_facet@V?$num_put@DV?$ostreambuf_iterator@DU?$char_traits@D@std@@@std@@@std@@@std@@YAABV?$num_put@DV?$ostreambuf_iterator@DU?$char_traits@D@std@@@std@@@0@ABVlocale@0@@Z 00437ac0     ObfuscateStrings.cpp.obj
 0002:0000dac0       __ehfuncinfo$??$use_facet@V?$codecvt@DDU_Mbstatet@@@std@@@std@@YAABV?$codecvt@DDU_Mbstatet@@@0@ABVlocale@0@@Z 00437ac0     StringScanner.cpp.obj
 0002:0000dac0       __ehfuncinfo$??$use_facet@V?$ctype@_W@std@@@std@@YAABV?$ctype@_W@0@ABVlocale@0@@Z 00437ac0     ObfuscateStrings.cpp.obj
 0002:0000dac0       __ehfuncinfo$??$use_facet@V?$ctype@D@std@@@std@@YAABV?$ctype@D@0@ABVlocale@0@@Z 00437ac0     ObfuscateStrings.cpp.obj
 0002:0000dac0       __ehfuncinfo$??$use_facet@V?$numpunct@D@std@@@std@@YAABV?$numpunct@D@0@ABVlocale@0@@Z 00437ac0     ObfuscateStrings.cpp.obj
 0002:0000dae4       __unwindtable$?_Getcat@?$ctype@_W@std@@SAIPAPBVfacet@locale@2@PBV42@@Z 00437ae4     ObfuscateStrings.cpp.obj
 0002:0000daec       __ehfuncinfo$?_Getcat@?$ctype@_W@std@@SAIPAPBVfacet@locale@2@PBV42@@Z 00437aec     ObfuscateStrings.cpp.obj
 0002:0000db10       __unwindtable$?_Makestr@_System_error@std@@CA?AV?$basic_string@DU?$char_traits@D@std@@V?$allocator@D@2@@2@Verror_code@2@V32@@Z 00437b10     ObfuscateStrings.cpp.obj
 0002:0000db20       __ehfuncinfo$?_Makestr@_System_error@std@@CA?AV?$basic_string@DU?$char_traits@D@std@@V?$allocator@D@2@@2@Verror_code@2@V32@@Z 00437b20     ObfuscateStrings.cpp.obj
 0002:0000db44       __catchsym$?_Copy@?$basic_string@_WU?$char_traits@_W@std@@V?$allocator@_W@2@@std@@QAEXII@Z$111 00437b44     ObfuscateStrings.cpp.obj
 0002:0000db54       __catchsym$?_Copy@?$basic_string@_WU?$char_traits@_W@std@@V?$allocator@_W@2@@std@@QAEXII@Z$110 00437b54     ObfuscateStrings.cpp.obj
 0002:0000db64       __unwindtable$?_Copy@?$basic_string@_WU?$char_traits@_W@std@@V?$allocator@_W@2@@std@@QAEXII@Z 00437b64     ObfuscateStrings.cpp.obj
 0002:0000db84       __ehfuncinfo$?_Copy@?$basic_string@_WU?$char_traits@_W@std@@V?$allocator@_W@2@@std@@QAEXII@Z 00437b84     ObfuscateStrings.cpp.obj
 0002:0000dba8       __tryblocktable$?_Copy@?$basic_string@_WU?$char_traits@_W@std@@V?$allocator@_W@2@@std@@QAEXII@Z 00437ba8     ObfuscateStrings.cpp.obj
 0002:0000dbd0       __catchsym$?_Osfx@?$basic_ostream@_WU?$char_traits@_W@std@@@std@@QAEXXZ$2 00437bd0     ObfuscateStrings.cpp.obj
 0002:0000dbd0       __catchsym$?_Osfx@?$basic_ostream@DU?$char_traits@D@std@@@std@@QAEXXZ$2 00437bd0     ObfuscateStrings.cpp.obj
 0002:0000dbe0       __unwindtable$?_Osfx@?$basic_ostream@DU?$char_traits@D@std@@@std@@QAEXXZ 00437be0     ObfuscateStrings.cpp.obj
 0002:0000dbe0       __unwindtable$?_Osfx@?$basic_ostream@_WU?$char_traits@_W@std@@@std@@QAEXXZ 00437be0     ObfuscateStrings.cpp.obj
 0002:0000dbf0       __tryblocktable$?_Osfx@?$basic_ostream@_WU?$char_traits@_W@std@@@std@@QAEXXZ 00437bf0     ObfuscateStrings.cpp.obj
 0002:0000dbf0       __tryblocktable$?_Osfx@?$basic_ostream@DU?$char_traits@D@std@@@std@@QAEXXZ 00437bf0     ObfuscateStrings.cpp.obj
 0002:0000dc04       __ehfuncinfo$?_Osfx@?$basic_ostream@_WU?$char_traits@_W@std@@@std@@QAEXXZ 00437c04     ObfuscateStrings.cpp.obj
 0002:0000dc04       __ehfuncinfo$?_Osfx@?$basic_ostream@DU?$char_traits@D@std@@@std@@QAEXXZ 00437c04     ObfuscateStrings.cpp.obj
 0002:0000dc28       __unwindtable$?flush@?$basic_ostream@DU?$char_traits@D@std@@@std@@QAEAAV12@XZ 00437c28     ObfuscateStrings.cpp.obj
 0002:0000dc28       __unwindtable$?flush@?$basic_ostream@_WU?$char_traits@_W@std@@@std@@QAEAAV12@XZ 00437c28     ObfuscateStrings.cpp.obj
 0002:0000dc40       __ehfuncinfo$?flush@?$basic_ostream@_WU?$char_traits@_W@std@@@std@@QAEAAV12@XZ 00437c40     ObfuscateStrings.cpp.obj
 0002:0000dc40       __ehfuncinfo$?flush@?$basic_ostream@DU?$char_traits@D@std@@@std@@QAEAAV12@XZ 00437c40     ObfuscateStrings.cpp.obj
 0002:0000dc64       __catchsym$??$?6_WU?$char_traits@_W@std@@@std@@YAAAV?$basic_ostream@_WU?$char_traits@_W@std@@@0@AAV10@PBD@Z$32 00437c64     ObfuscateStrings.cpp.obj
 0002:0000dc74       __tryblocktable$??$?6_WU?$char_traits@_W@std@@@std@@YAAAV?$basic_ostream@_WU?$char_traits@_W@std@@@0@AAV10@PBD@Z 00437c74     ObfuscateStrings.cpp.obj
 0002:0000dc88       __ehfuncinfo$??$?6_WU?$char_traits@_W@std@@@std@@YAAAV?$basic_ostream@_WU?$char_traits@_W@std@@@0@AAV10@PBD@Z 00437c88     ObfuscateStrings.cpp.obj
 0002:0000dcac       __unwindtable$??$?6_WU?$char_traits@_W@std@@@std@@YAAAV?$basic_ostream@_WU?$char_traits@_W@std@@@0@AAV10@PBD@Z 00437cac     ObfuscateStrings.cpp.obj
 0002:0000dcec       __unwindtable$_main        00437cec     ObfuscateStrings.cpp.obj
 0002:0000dcfc       __ehfuncinfo$_main         00437cfc     ObfuscateStrings.cpp.obj
 0002:0000dd20       __catchsym$??6?$basic_ostream@DU?$char_traits@D@std@@@std@@QAEAAV01@H@Z$22 00437d20     ObfuscateStrings.cpp.obj
 0002:0000dd30       __tryblocktable$??6?$basic_ostream@DU?$char_traits@D@std@@@std@@QAEAAV01@H@Z 00437d30     ObfuscateStrings.cpp.obj
 0002:0000dd44       __ehfuncinfo$??6?$basic_ostream@DU?$char_traits@D@std@@@std@@QAEAAV01@H@Z 00437d44     ObfuscateStrings.cpp.obj
 0002:0000dd68       __unwindtable$??6?$basic_ostream@DU?$char_traits@D@std@@@std@@QAEAAV01@H@Z 00437d68     ObfuscateStrings.cpp.obj
 0002:0000dda8       __catchsym$??$?6U?$char_traits@D@std@@@std@@YAAAV?$basic_ostream@DU?$char_traits@D@std@@@0@AAV10@PBD@Z$26 00437da8     ObfuscateStrings.cpp.obj
 0002:0000ddb8       __tryblocktable$??$?6U?$char_traits@D@std@@@std@@YAAAV?$basic_ostream@DU?$char_traits@D@std@@@0@AAV10@PBD@Z 00437db8     ObfuscateStrings.cpp.obj
 0002:0000ddcc       __ehfuncinfo$??$?6U?$char_traits@D@std@@@std@@YAAAV?$basic_ostream@DU?$char_traits@D@std@@@0@AAV10@PBD@Z 00437dcc     ObfuscateStrings.cpp.obj
 0002:0000ddf0       __unwindtable$??$?6U?$char_traits@D@std@@@std@@YAAAV?$basic_ostream@DU?$char_traits@D@std@@@0@AAV10@PBD@Z 00437df0     ObfuscateStrings.cpp.obj
 0002:0000de20       __catchsym$??$?6_WU?$char_traits@_W@std@@@std@@YAAAV?$basic_ostream@_WU?$char_traits@_W@std@@@0@AAV10@PB_W@Z$26 00437e20     ObfuscateStrings.cpp.obj
 0002:0000de30       __tryblocktable$??$?6_WU?$char_traits@_W@std@@@std@@YAAAV?$basic_ostream@_WU?$char_traits@_W@std@@@0@AAV10@PB_W@Z 00437e30     ObfuscateStrings.cpp.obj
 0002:0000de44       __ehfuncinfo$??$?6_WU?$char_traits@_W@std@@@std@@YAAAV?$basic_ostream@_WU?$char_traits@_W@std@@@0@AAV10@PB_W@Z 00437e44     ObfuscateStrings.cpp.obj
 0002:0000de68       __unwindtable$??$?6_WU?$char_traits@_W@std@@@std@@YAAAV?$basic_ostream@_WU?$char_traits@_W@std@@@0@AAV10@PB_W@Z 00437e68     ObfuscateStrings.cpp.obj
 0002:0000de98       __ehfuncinfo$?do_put@?$num_put@DV?$ostreambuf_iterator@DU?$char_traits@D@std@@@std@@@std@@MBE?AV?$ostreambuf_iterator@DU?$char_traits@D@std@@@2@V32@AAVios_base@2@D_N@Z 00437e98     ObfuscateStrings.cpp.obj
 0002:0000debc       __unwindtable$?do_put@?$num_put@DV?$ostreambuf_iterator@DU?$char_traits@D@std@@@std@@@std@@MBE?AV?$ostreambuf_iterator@DU?$char_traits@D@std@@@2@V32@AAVios_base@2@D_N@Z 00437ebc     ObfuscateStrings.cpp.obj
 0002:0000dee4       __unwindtable$?do_put@?$num_put@DV?$ostreambuf_iterator@DU?$char_traits@D@std@@@std@@@std@@MBE?AV?$ostreambuf_iterator@DU?$char_traits@D@std@@@2@V32@AAVios_base@2@DN@Z 00437ee4     ObfuscateStrings.cpp.obj
 0002:0000dee4       __unwindtable$?do_put@?$num_put@DV?$ostreambuf_iterator@DU?$char_traits@D@std@@@std@@@std@@MBE?AV?$ostreambuf_iterator@DU?$char_traits@D@std@@@2@V32@AAVios_base@2@DO@Z 00437ee4     ObfuscateStrings.cpp.obj
 0002:0000deec       __ehfuncinfo$?do_put@?$num_put@DV?$ostreambuf_iterator@DU?$char_traits@D@std@@@std@@@std@@MBE?AV?$ostreambuf_iterator@DU?$char_traits@D@std@@@2@V32@AAVios_base@2@DO@Z 00437eec     ObfuscateStrings.cpp.obj
 0002:0000deec       __ehfuncinfo$?do_put@?$num_put@DV?$ostreambuf_iterator@DU?$char_traits@D@std@@@std@@@std@@MBE?AV?$ostreambuf_iterator@DU?$char_traits@D@std@@@2@V32@AAVios_base@2@DN@Z 00437eec     ObfuscateStrings.cpp.obj
 0002:0000df10       __ehfuncinfo$?_Fput@?$num_put@DV?$ostreambuf_iterator@DU?$char_traits@D@std@@@std@@@std@@ABA?AV?$ostreambuf_iterator@DU?$char_traits@D@std@@@2@V32@AAVios_base@2@DPBDI@Z 00437f10     ObfuscateStrings.cpp.obj
 0002:0000df34       __unwindtable$?_Fput@?$num_put@DV?$ostreambuf_iterator@DU?$char_traits@D@std@@@std@@@std@@ABA?AV?$ostreambuf_iterator@DU?$char_traits@D@std@@@2@V32@AAVios_base@2@DPBDI@Z 00437f34     ObfuscateStrings.cpp.obj
 0002:0000df64       __ehfuncinfo$?_Iput@?$num_put@DV?$ostreambuf_iterator@DU?$char_traits@D@std@@@std@@@std@@ABA?AV?$ostreambuf_iterator@DU?$char_traits@D@std@@@2@V32@AAVios_base@2@DPADI@Z 00437f64     ObfuscateStrings.cpp.obj
 0002:0000df88       __unwindtable$?_Iput@?$num_put@DV?$ostreambuf_iterator@DU?$char_traits@D@std@@@std@@@std@@ABA?AV?$ostreambuf_iterator@DU?$char_traits@D@std@@@2@V32@AAVios_base@2@DPADI@Z 00437f88     ObfuscateStrings.cpp.obj
 0002:0000dfb8       __unwindtable$?_Getcat@?$numpunct@D@std@@SAIPAPBVfacet@locale@2@PBV42@@Z 00437fb8     ObfuscateStrings.cpp.obj
 0002:0000dfd8       __ehfuncinfo$?_Getcat@?$numpunct@D@std@@SAIPAPBVfacet@locale@2@PBV42@@Z 00437fd8     ObfuscateStrings.cpp.obj
 0002:0000dffc       __catchsym$?_Init@?$numpunct@D@std@@IAEXABV_Locinfo@2@_N@Z$2 00437ffc     ObfuscateStrings.cpp.obj
 0002:0000e00c       __unwindtable$?_Init@?$numpunct@D@std@@IAEXABV_Locinfo@2@_N@Z 0043800c     ObfuscateStrings.cpp.obj
 0002:0000e01c       __tryblocktable$?_Init@?$numpunct@D@std@@IAEXABV_Locinfo@2@_N@Z 0043801c     ObfuscateStrings.cpp.obj
 0002:0000e030       __ehfuncinfo$?_Init@?$numpunct@D@std@@IAEXABV_Locinfo@2@_N@Z 00438030     ObfuscateStrings.cpp.obj
 0002:0000e054       __unwindtable$??0sentry@?$basic_ostream@_WU?$char_traits@_W@std@@@std@@QAE@AAV12@@Z 00438054     ObfuscateStrings.cpp.obj
 0002:0000e054       __unwindtable$??0sentry@?$basic_ostream@DU?$char_traits@D@std@@@std@@QAE@AAV12@@Z 00438054     ObfuscateStrings.cpp.obj
 0002:0000e05c       __ehfuncinfo$??0sentry@?$basic_ostream@DU?$char_traits@D@std@@@std@@QAE@AAV12@@Z 0043805c     ObfuscateStrings.cpp.obj
 0002:0000e05c       __ehfuncinfo$??0sentry@?$basic_ostream@_WU?$char_traits@_W@std@@@std@@QAE@AAV12@@Z 0043805c     ObfuscateStrings.cpp.obj
 0002:0000e188       __unwindtable$??_G?$basic_istream@DU?$char_traits@D@std@@@std@@UAEPAXI@Z 00438188     StringScanner.cpp.obj
 0002:0000e188       __unwindtable$??_G?$basic_ostream@DU?$char_traits@D@std@@@std@@UAEPAXI@Z 00438188     StringScanner.cpp.obj
 0002:0000e188       __unwindtable$??_Gios_base@std@@UAEPAXI@Z 00438188     StringScanner.cpp.obj
 0002:0000e188       __unwindtable$??_D?$basic_fstream@DU?$char_traits@D@std@@@std@@QAEXXZ 00438188     StringScanner.cpp.obj
 0002:0000e188       __unwindtable$??1sentry@?$basic_ostream@_WU?$char_traits@_W@std@@@std@@QAE@XZ 00438188     ObfuscateStrings.cpp.obj
 0002:0000e188       __unwindtable$??_G?$basic_ios@_WU?$char_traits@_W@std@@@std@@UAEPAXI@Z 00438188     libcpmt:wcout.obj
 0002:0000e188       __unwindtable$??1sentry@?$basic_ostream@DU?$char_traits@D@std@@@std@@QAE@XZ 00438188     ObfuscateStrings.cpp.obj
 0002:0000e188       __unwindtable$??_G?$basic_ios@DU?$char_traits@D@std@@@std@@UAEPAXI@Z 00438188     StringScanner.cpp.obj
 0002:0000e190       __ehfuncinfo$??_G?$basic_ostream@DU?$char_traits@D@std@@@std@@UAEPAXI@Z 00438190     StringScanner.cpp.obj
 0002:0000e190       __ehfuncinfo$??1sentry@?$basic_ostream@_WU?$char_traits@_W@std@@@std@@QAE@XZ 00438190     ObfuscateStrings.cpp.obj
 0002:0000e190       __ehfuncinfo$??_G?$basic_istream@DU?$char_traits@D@std@@@std@@UAEPAXI@Z 00438190     StringScanner.cpp.obj
 0002:0000e190       __ehfuncinfo$??_D?$basic_fstream@DU?$char_traits@D@std@@@std@@QAEXXZ 00438190     StringScanner.cpp.obj
 0002:0000e190       __ehfuncinfo$??_G?$basic_ios@DU?$char_traits@D@std@@@std@@UAEPAXI@Z 00438190     StringScanner.cpp.obj
 0002:0000e190       __ehfuncinfo$??_Gios_base@std@@UAEPAXI@Z 00438190     StringScanner.cpp.obj
 0002:0000e190       __ehfuncinfo$??_G?$basic_ios@_WU?$char_traits@_W@std@@@std@@UAEPAXI@Z 00438190     libcpmt:wcout.obj
 0002:0000e190       __ehfuncinfo$??1sentry@?$basic_ostream@DU?$char_traits@D@std@@@std@@QAE@XZ 00438190     ObfuscateStrings.cpp.obj
 0002:0000e1b4       __ehfuncinfo$?Scan@StringScanner@@QAE_NABUarguments@@@Z 004381b4     StringScanner.cpp.obj
 0002:0000e1d8       __unwindtable$?Scan@StringScanner@@QAE_NABUarguments@@@Z 004381d8     StringScanner.cpp.obj
 0002:0000e230       __unwindtable$??0system_error@std@@QAE@Verror_code@1@PBD@Z 00438230     ObfuscateStrings.cpp.obj
 0002:0000e230       __unwindtable$?FillError@StringScanner@@AAEXPB_W@Z 00438230     StringScanner.cpp.obj
 0002:0000e238       __ehfuncinfo$?FillError@StringScanner@@AAEXPB_W@Z 00438238     StringScanner.cpp.obj
 0002:0000e238       __ehfuncinfo$??0system_error@std@@QAE@Verror_code@1@PBD@Z 00438238     ObfuscateStrings.cpp.obj
 0002:0000e25c       __unwindtable$?ObfuscateWStringInBuffer@StringScanner@@AAEXPADV?$vector@U?$pair@HH@std@@V?$allocator@U?$pair@HH@std@@@2@@std@@@Z 0043825c     StringScanner.cpp.obj
 0002:0000e264       __ehfuncinfo$?ObfuscateWStringInBuffer@StringScanner@@AAEXPADV?$vector@U?$pair@HH@std@@V?$allocator@U?$pair@HH@std@@@2@@std@@@Z 00438264     StringScanner.cpp.obj
 0002:0000e288       __catchsym$??0?$vector@U?$pair@HH@std@@V?$allocator@U?$pair@HH@std@@@2@@std@@QAE@ABV01@@Z$67 00438288     StringScanner.cpp.obj
 0002:0000e298       __unwindtable$??0?$vector@U?$pair@HH@std@@V?$allocator@U?$pair@HH@std@@@2@@std@@QAE@ABV01@@Z 00438298     StringScanner.cpp.obj
 0002:0000e2a8       __tryblocktable$??0?$vector@U?$pair@HH@std@@V?$allocator@U?$pair@HH@std@@@2@@std@@QAE@ABV01@@Z 004382a8     StringScanner.cpp.obj
 0002:0000e2bc       __ehfuncinfo$??0?$vector@U?$pair@HH@std@@V?$allocator@U?$pair@HH@std@@@2@@std@@QAE@ABV01@@Z 004382bc     StringScanner.cpp.obj
 0002:0000e2e0       __catchsym$?_Reallocate@?$vector@U?$pair@HH@std@@V?$allocator@U?$pair@HH@std@@@2@@std@@IAEXI@Z$51 004382e0     StringScanner.cpp.obj
 0002:0000e2f0       __unwindtable$?_Reallocate@?$vector@U?$pair@HH@std@@V?$allocator@U?$pair@HH@std@@@2@@std@@IAEXI@Z 004382f0     StringScanner.cpp.obj
 0002:0000e300       __tryblocktable$?_Reallocate@?$vector@U?$pair@HH@std@@V?$allocator@U?$pair@HH@std@@@2@@std@@IAEXI@Z 00438300     StringScanner.cpp.obj
 0002:0000e314       __ehfuncinfo$?_Reallocate@?$vector@U?$pair@HH@std@@V?$allocator@U?$pair@HH@std@@@2@@std@@IAEXI@Z 00438314     StringScanner.cpp.obj
 0002:0000e338       __catchsym$?_Ipfx@?$basic_istream@DU?$char_traits@D@std@@@std@@QAE_N_N@Z$20 00438338     StringScanner.cpp.obj
 0002:0000e348       __tryblocktable$?_Ipfx@?$basic_istream@DU?$char_traits@D@std@@@std@@QAE_N_N@Z 00438348     StringScanner.cpp.obj
 0002:0000e35c       __unwindtable$?_Ipfx@?$basic_istream@DU?$char_traits@D@std@@@std@@QAE_N_N@Z 0043835c     StringScanner.cpp.obj
 0002:0000e37c       __ehfuncinfo$?_Ipfx@?$basic_istream@DU?$char_traits@D@std@@@std@@QAE_N_N@Z 0043837c     StringScanner.cpp.obj
 0002:0000e3a0       __catchsym$?read@?$basic_istream@DU?$char_traits@D@std@@@std@@QAEAAV12@PAD_J@Z$18 004383a0     StringScanner.cpp.obj
 0002:0000e3b0       __tryblocktable$?read@?$basic_istream@DU?$char_traits@D@std@@@std@@QAEAAV12@PAD_J@Z 004383b0     StringScanner.cpp.obj
 0002:0000e3c4       __ehfuncinfo$?read@?$basic_istream@DU?$char_traits@D@std@@@std@@QAEAAV12@PAD_J@Z 004383c4     StringScanner.cpp.obj
 0002:0000e3e8       __unwindtable$?read@?$basic_istream@DU?$char_traits@D@std@@@std@@QAEAAV12@PAD_J@Z 004383e8     StringScanner.cpp.obj
 0002:0000e410       __unwindtable$?seekg@?$basic_istream@DU?$char_traits@D@std@@@std@@QAEAAV12@_JH@Z 00438410     StringScanner.cpp.obj
 0002:0000e428       __ehfuncinfo$?seekg@?$basic_istream@DU?$char_traits@D@std@@@std@@QAEAAV12@_JH@Z 00438428     StringScanner.cpp.obj
 0002:0000e44c       __unwindtable$?tellg@?$basic_istream@DU?$char_traits@D@std@@@std@@QAE?AV?$fpos@U_Mbstatet@@@2@XZ 0043844c     StringScanner.cpp.obj
 0002:0000e46c       __ehfuncinfo$?tellg@?$basic_istream@DU?$char_traits@D@std@@@std@@QAE?AV?$fpos@U_Mbstatet@@@2@XZ 0043846c     StringScanner.cpp.obj
 0002:0000e490       __catchsym$?write@?$basic_ostream@DU?$char_traits@D@std@@@std@@QAEAAV12@PBD_J@Z$18 00438490     StringScanner.cpp.obj
 0002:0000e4a0       __tryblocktable$?write@?$basic_ostream@DU?$char_traits@D@std@@@std@@QAEAAV12@PBD_J@Z 004384a0     StringScanner.cpp.obj
 0002:0000e4b4       __ehfuncinfo$?write@?$basic_ostream@DU?$char_traits@D@std@@@std@@QAEAAV12@PBD_J@Z 004384b4     StringScanner.cpp.obj
 0002:0000e4d8       __unwindtable$?write@?$basic_ostream@DU?$char_traits@D@std@@@std@@QAEAAV12@PBD_J@Z 004384d8     StringScanner.cpp.obj
 0002:0000e508       __unwindtable$??0?$basic_iostream@DU?$char_traits@D@std@@@std@@QAE@PAV?$basic_streambuf@DU?$char_traits@D@std@@@1@@Z 00438508     StringScanner.cpp.obj
 0002:0000e528       __ehfuncinfo$??0?$basic_iostream@DU?$char_traits@D@std@@@std@@QAE@PAV?$basic_streambuf@DU?$char_traits@D@std@@@1@@Z 00438528     StringScanner.cpp.obj
 0002:0000e54c       __unwindtable$??0?$basic_fstream@DU?$char_traits@D@std@@@std@@QAE@ABV?$basic_string@_WU?$char_traits@_W@std@@V?$allocator@_W@2@@1@HH@Z 0043854c     StringScanner.cpp.obj
 0002:0000e564       __ehfuncinfo$??0?$basic_fstream@DU?$char_traits@D@std@@@std@@QAE@ABV?$basic_string@_WU?$char_traits@_W@std@@V?$allocator@_W@2@@1@HH@Z 00438564     StringScanner.cpp.obj
 0002:0000e588       __unwindtable$?getloc@?$basic_streambuf@DU?$char_traits@D@std@@@std@@QBE?AVlocale@2@XZ 00438588     StringScanner.cpp.obj
 0002:0000e588       __unwindtable$?_Init@ios_base@std@@IAEXXZ 00438588     StringScanner.cpp.obj
 0002:0000e588       __unwindtable$?getloc@ios_base@std@@QBE?AVlocale@2@XZ 00438588     ObfuscateStrings.cpp.obj
 0002:0000e588       __unwindtable$??0?$basic_streambuf@DU?$char_traits@D@std@@@std@@IAE@XZ 00438588     StringScanner.cpp.obj
 0002:0000e590       __ehfuncinfo$?_Init@ios_base@std@@IAEXXZ 00438590     StringScanner.cpp.obj
 0002:0000e590       __ehfuncinfo$?getloc@ios_base@std@@QBE?AVlocale@2@XZ 00438590     ObfuscateStrings.cpp.obj
 0002:0000e590       __ehfuncinfo$?getloc@?$basic_streambuf@DU?$char_traits@D@std@@@std@@QBE?AVlocale@2@XZ 00438590     StringScanner.cpp.obj
 0002:0000e590       __ehfuncinfo$??0?$basic_streambuf@DU?$char_traits@D@std@@@std@@IAE@XZ 00438590     StringScanner.cpp.obj
 0002:0000e5b4       __unwindtable$?init@?$basic_ios@DU?$char_traits@D@std@@@std@@IAEXPAV?$basic_streambuf@DU?$char_traits@D@std@@@2@_N@Z 004385b4     StringScanner.cpp.obj
 0002:0000e5b4       __unwindtable$?open@?$basic_filebuf@DU?$char_traits@D@std@@@std@@QAEPAV12@PB_WHH@Z 004385b4     StringScanner.cpp.obj
 0002:0000e5c4       __ehfuncinfo$?init@?$basic_ios@DU?$char_traits@D@std@@@std@@IAEXPAV?$basic_streambuf@DU?$char_traits@D@std@@@2@_N@Z 004385c4     StringScanner.cpp.obj
 0002:0000e5c4       __ehfuncinfo$?open@?$basic_filebuf@DU?$char_traits@D@std@@@std@@QAEPAV12@PB_WHH@Z 004385c4     StringScanner.cpp.obj
 0002:0000e5e8       __unwindtable$?overflow@?$basic_filebuf@DU?$char_traits@D@std@@@std@@MAEHH@Z 004385e8     StringScanner.cpp.obj
 0002:0000e5e8       __unwindtable$?uflow@?$basic_filebuf@DU?$char_traits@D@std@@@std@@MAEHXZ 004385e8     StringScanner.cpp.obj
 0002:0000e5f0       __ehfuncinfo$?uflow@?$basic_filebuf@DU?$char_traits@D@std@@@std@@MAEHXZ 004385f0     StringScanner.cpp.obj
 0002:0000e5f0       __ehfuncinfo$?overflow@?$basic_filebuf@DU?$char_traits@D@std@@@std@@MAEHH@Z 004385f0     StringScanner.cpp.obj
 0002:0000e614       __unwindtable$??_G?$basic_streambuf@DU?$char_traits@D@std@@@std@@UAEPAXI@Z 00438614     StringScanner.cpp.obj
 0002:0000e614       __unwindtable$??_G?$basic_fstream@DU?$char_traits@D@std@@@std@@UAEPAXI@Z 00438614     StringScanner.cpp.obj
 0002:0000e614       __unwindtable$??1?$basic_filebuf@DU?$char_traits@D@std@@@std@@UAE@XZ 00438614     StringScanner.cpp.obj
 0002:0000e61c       __ehfuncinfo$??_G?$basic_fstream@DU?$char_traits@D@std@@@std@@UAEPAXI@Z 0043861c     StringScanner.cpp.obj
 0002:0000e61c       __ehfuncinfo$??1?$basic_filebuf@DU?$char_traits@D@std@@@std@@UAE@XZ 0043861c     StringScanner.cpp.obj
 0002:0000e61c       __ehfuncinfo$??_G?$basic_streambuf@DU?$char_traits@D@std@@@std@@UAEPAXI@Z 0043861c     StringScanner.cpp.obj
 0002:0000e640       __unwindtable$??$?H_WU?$char_traits@_W@std@@V?$allocator@_W@1@@std@@YA?AV?$basic_string@_WU?$char_traits@_W@std@@V?$allocator@_W@2@@0@ABV10@PB_W@Z 00438640     StringScanner.cpp.obj
 0002:0000e648       __ehfuncinfo$??$?H_WU?$char_traits@_W@std@@V?$allocator@_W@1@@std@@YA?AV?$basic_string@_WU?$char_traits@_W@std@@V?$allocator@_W@2@@0@ABV10@PB_W@Z 00438648     StringScanner.cpp.obj
 0002:0000e66c       __unwindtable$?_Getcat@?$num_put@DV?$ostreambuf_iterator@DU?$char_traits@D@std@@@std@@@std@@SAIPAPBVfacet@locale@2@PBV42@@Z 0043866c     ObfuscateStrings.cpp.obj
 0002:0000e66c       __unwindtable$?_Getcat@?$codecvt@DDU_Mbstatet@@@std@@SAIPAPBVfacet@locale@2@PBV42@@Z 0043866c     StringScanner.cpp.obj
 0002:0000e674       __ehfuncinfo$?_Getcat@?$num_put@DV?$ostreambuf_iterator@DU?$char_traits@D@std@@@std@@@std@@SAIPAPBVfacet@locale@2@PBV42@@Z 00438674     ObfuscateStrings.cpp.obj
 0002:0000e674       __ehfuncinfo$?_Getcat@?$codecvt@DDU_Mbstatet@@@std@@SAIPAPBVfacet@locale@2@PBV42@@Z 00438674     StringScanner.cpp.obj
 0002:0000e764       __unwindtable$?_Locimp_dtor@_Locimp@locale@std@@CAXPAV123@@Z 00438764     libcpmt:locale0.obj
 0002:0000e76c       __ehfuncinfo$?_Locimp_dtor@_Locimp@locale@std@@CAXPAV123@@Z 0043876c     libcpmt:locale0.obj
 0002:0000e790       __unwindtable$?_Init@locale@std@@CAPAV_Locimp@12@_N@Z 00438790     libcpmt:locale0.obj
 0002:0000e798       __ehfuncinfo$?_Init@locale@std@@CAPAV_Locimp@12@_N@Z 00438798     libcpmt:locale0.obj
 0002:0000e7bc       __unwindtable$??0?$basic_ostream@DU?$char_traits@D@std@@@std@@QAE@PAV?$basic_streambuf@DU?$char_traits@D@std@@@1@_N@Z 004387bc     libcpmt:cout.obj
 0002:0000e7c4       __ehfuncinfo$??0?$basic_ostream@DU?$char_traits@D@std@@@std@@QAE@PAV?$basic_streambuf@DU?$char_traits@D@std@@@1@_N@Z 004387c4     libcpmt:cout.obj
 0002:0000e7e8       __unwindtable$?_Getcat@?$codecvt@_WDU_Mbstatet@@@std@@SAIPAPBVfacet@locale@2@PBV42@@Z 004387e8     libcpmt:wcout.obj
 0002:0000e7f0       __ehfuncinfo$?_Getcat@?$codecvt@_WDU_Mbstatet@@@std@@SAIPAPBVfacet@locale@2@PBV42@@Z 004387f0     libcpmt:wcout.obj
 0002:0000e814       __unwindtable$??0?$basic_streambuf@_WU?$char_traits@_W@std@@@std@@IAE@XZ 00438814     libcpmt:wcout.obj
 0002:0000e81c       __ehfuncinfo$??0?$basic_streambuf@_WU?$char_traits@_W@std@@@std@@IAE@XZ 0043881c     libcpmt:wcout.obj
 0002:0000e840       __unwindtable$?overflow@?$basic_filebuf@_WU?$char_traits@_W@std@@@std@@MAEGG@Z 00438840     libcpmt:wcout.obj
 0002:0000e848       __ehfuncinfo$?overflow@?$basic_filebuf@_WU?$char_traits@_W@std@@@std@@MAEGG@Z 00438848     libcpmt:wcout.obj
 0002:0000e86c       __unwindtable$?uflow@?$basic_filebuf@_WU?$char_traits@_W@std@@@std@@MAEGXZ 0043886c     libcpmt:wcout.obj
 0002:0000e874       __ehfuncinfo$?uflow@?$basic_filebuf@_WU?$char_traits@_W@std@@@std@@MAEGXZ 00438874     libcpmt:wcout.obj
 0002:0000e898       __unwindtable$?_Endwrite@?$basic_filebuf@DU?$char_traits@D@std@@@std@@IAE_NXZ 00438898     StringScanner.cpp.obj
 0002:0000e898       __unwindtable$?_Endwrite@?$basic_filebuf@_WU?$char_traits@_W@std@@@std@@IAE_NXZ 00438898     libcpmt:wcout.obj
 0002:0000e8a0       __ehfuncinfo$?_Endwrite@?$basic_filebuf@DU?$char_traits@D@std@@@std@@IAE_NXZ 004388a0     StringScanner.cpp.obj
 0002:0000e8a0       __ehfuncinfo$?_Endwrite@?$basic_filebuf@_WU?$char_traits@_W@std@@@std@@IAE_NXZ 004388a0     libcpmt:wcout.obj
 0002:0000e8c4       __unwindtable$??1?$basic_ios@DU?$char_traits@D@std@@@std@@UAE@XZ 004388c4     StringScanner.cpp.obj
 0002:0000e8c4       __unwindtable$??_D?$basic_ostream@_WU?$char_traits@_W@std@@@std@@QAEXXZ 004388c4     libcpmt:wcout.obj
 0002:0000e8c4       __unwindtable$??_D?$basic_iostream@DU?$char_traits@D@std@@@std@@QAEXXZ 004388c4     StringScanner.cpp.obj
 0002:0000e8c4       __unwindtable$??_D?$basic_ostream@DU?$char_traits@D@std@@@std@@QAEXXZ 004388c4     libcpmt:cout.obj
 0002:0000e8c4       __unwindtable$??1sentry@?$basic_istream@DU?$char_traits@D@std@@@std@@QAE@XZ 004388c4     StringScanner.cpp.obj
 0002:0000e8c4       __unwindtable$??1?$basic_ios@_WU?$char_traits@_W@std@@@std@@UAE@XZ 004388c4     libcpmt:wcout.obj
 0002:0000e8cc       __ehfuncinfo$??_D?$basic_ostream@DU?$char_traits@D@std@@@std@@QAEXXZ 004388cc     libcpmt:cout.obj
 0002:0000e8cc       __ehfuncinfo$??1sentry@?$basic_istream@DU?$char_traits@D@std@@@std@@QAE@XZ 004388cc     StringScanner.cpp.obj
 0002:0000e8cc       __ehfuncinfo$??1?$basic_ios@_WU?$char_traits@_W@std@@@std@@UAE@XZ 004388cc     libcpmt:wcout.obj
 0002:0000e8cc       __ehfuncinfo$??_D?$basic_ostream@_WU?$char_traits@_W@std@@@std@@QAEXXZ 004388cc     libcpmt:wcout.obj
 0002:0000e8cc       __ehfuncinfo$??1?$basic_ios@DU?$char_traits@D@std@@@std@@UAE@XZ 004388cc     StringScanner.cpp.obj
 0002:0000e8cc       __ehfuncinfo$??_D?$basic_iostream@DU?$char_traits@D@std@@@std@@QAEXXZ 004388cc     StringScanner.cpp.obj
 0002:0000e8f0       __unwindtable$?widen@?$basic_ios@_WU?$char_traits@_W@std@@@std@@QBE_WD@Z 004388f0     libcpmt:wcout.obj
 0002:0000e8f8       __ehfuncinfo$?widen@?$basic_ios@_WU?$char_traits@_W@std@@@std@@QBE_WD@Z 004388f8     libcpmt:wcout.obj
 0002:0000e91c       __unwindtable$??0?$basic_ostream@_WU?$char_traits@_W@std@@@std@@QAE@PAV?$basic_streambuf@_WU?$char_traits@_W@std@@@1@_N@Z 0043891c     libcpmt:wcout.obj
 0002:0000e924       __ehfuncinfo$??0?$basic_ostream@_WU?$char_traits@_W@std@@@std@@QAE@PAV?$basic_streambuf@_WU?$char_traits@_W@std@@@1@_N@Z 00438924     libcpmt:wcout.obj
 0002:0000e948       __unwindtable$??$use_facet@V?$codecvt@_WDU_Mbstatet@@@std@@@std@@YAABV?$codecvt@_WDU_Mbstatet@@@0@ABVlocale@0@@Z 00438948     libcpmt:wcout.obj
 0002:0000e950       __ehfuncinfo$??$use_facet@V?$codecvt@_WDU_Mbstatet@@@std@@@std@@YAABV?$codecvt@_WDU_Mbstatet@@@0@ABVlocale@0@@Z 00438950     libcpmt:wcout.obj
 0002:0000e978       __sehtable$___scrt_is_nonwritable_in_current_image 00438978     LIBCMT:utility.obj
 0002:0000e998       __sehtable$?__scrt_common_main_seh@@YAHXZ 00438998     LIBCMT:exe_main.obj
 0002:0000e9f0       __sehtable$___FrameUnwindToState 004389f0     libvcruntime:frame.obj
 0002:0000ea18       __sehtable$?CallCatchBlock@@YAPAXPAUEHExceptionRecord@@PAUEHRegistrationNode@@PAU_CONTEXT@@PBU_s_FuncInfo@@PAXHK@Z 00438a18     libvcruntime:frame.obj
 0002:0000ea40       __sehtable$___BuildCatchObject 00438a40     libvcruntime:frame.obj
 0002:0000ea60       __sehtable$___DestructExceptionObject 00438a60     libvcruntime:frame.obj
 0002:0000ea7c       __catchsym$?CallUnexpected@@YAXPBU_s_ESTypeList@@@Z$2 00438a7c     libvcruntime:frame.obj
 0002:0000ea8c       __unwindtable$?CallUnexpected@@YAXPBU_s_ESTypeList@@@Z 00438a8c     libvcruntime:frame.obj
 0002:0000ea9c       __tryblocktable$?CallUnexpected@@YAXPBU_s_ESTypeList@@@Z 00438a9c     libvcruntime:frame.obj
 0002:0000eab0       __ehfuncinfo$?CallUnexpected@@YAXPBU_s_ESTypeList@@@Z 00438ab0     libvcruntime:frame.obj
 0002:0000ead8       __sehtable$___BuildCatchObjectHelper 00438ad8     libvcruntime:frame.obj
 0002:0000eb30       __sehtable$_fclose         00438b30     libucrt:fclose.obj
 0002:0000eb50       __sehtable$??$?RV<lambda_2866be3712abc81a800a822484c830d8>@@AAV<lambda_39ca0ed439415581b5b15c265174cece>@@V<lambda_2b24c74d71094a6cd0cb82e44167d71b>@@@?$__crt_seh_guarded_call@X@@QAEX$$QAV<lambda_2866be3712abc81a800a822484c830d8>@@AAV<lambda_39ca0ed439415581b5b15c265174cece>@@$$QAV<lambda_2b24c74d71094a6cd0cb82e44167d71b>@@@Z 00438b50     libucrt:fflush.obj
 0002:0000eb70       __sehtable$??$?RV<lambda_2cc53f568c5a2bb6f192f930a45d44ea>@@AAV<lambda_ab61a845afdef5b7c387490eaf3616ee>@@V<lambda_c2ffc0b7726aa6be21d5f0026187e748>@@@?$__crt_seh_guarded_call@X@@QAEX$$QAV<lambda_2cc53f568c5a2bb6f192f930a45d44ea>@@AAV<lambda_ab61a845afdef5b7c387490eaf3616ee>@@$$QAV<lambda_c2ffc0b7726aa6be21d5f0026187e748>@@@Z 00438b70     libucrt:fflush.obj
 0002:0000eb90       __sehtable$??$?RV<lambda_6d20deecaf4856105ebacbad442d1079>@@AAV<lambda_9a32fed5bf61b6b509b2d3f6003082a1>@@V<lambda_63ea2239ed67c638ddbae41947fdf875>@@@?$__crt_seh_guarded_call@H@@QAEH$$QAV<lambda_6d20deecaf4856105ebacbad442d1079>@@AAV<lambda_9a32fed5bf61b6b509b2d3f6003082a1>@@$$QAV<lambda_63ea2239ed67c638ddbae41947fdf875>@@@Z 00438b90     libucrt:fflush.obj
 0002:0000ebb0       __sehtable$_fgetc          00438bb0     libucrt:fgetc.obj
 0002:0000ebd0       __sehtable$_fputc          00438bd0     libucrt:fputc.obj
 0002:0000ebf0       __sehtable$?common_fseek@@YAHV__crt_stdio_stream@@_JH@Z 00438bf0     libucrt:fseek.obj
 0002:0000ec10       __sehtable$??$?RV<lambda_cd3bfd923e8d1349099e544c97b1bd8e>@@AAV<lambda_54dcfcba6f8e0c549fa430f4d53fb7dd>@@V<lambda_5e1d0fa2aa2b73b187bf8b7e1d30c7f8>@@@?$__crt_seh_guarded_call@I@@QAEI$$QAV<lambda_cd3bfd923e8d1349099e544c97b1bd8e>@@AAV<lambda_54dcfcba6f8e0c549fa430f4d53fb7dd>@@$$QAV<lambda_5e1d0fa2aa2b73b187bf8b7e1d30c7f8>@@@Z 00438c10     libucrt:fwrite.obj
 0002:0000ec30       __sehtable$??$?RV<lambda_70c0770dcc4f6ec6272bb01dc82d3c91>@@AAV<lambda_ca71763b3c0644891230e4f79ea54fa6>@@V<lambda_ca266f0f09348b8765c113e3a39a2bc1>@@@?$__crt_seh_guarded_call@H@@QAEH$$QAV<lambda_70c0770dcc4f6ec6272bb01dc82d3c91>@@AAV<lambda_ca71763b3c0644891230e4f79ea54fa6>@@$$QAV<lambda_ca266f0f09348b8765c113e3a39a2bc1>@@@Z 00438c30     libucrt:setvbuf.obj
 0002:0000ec50       __sehtable$_ungetc         00438c50     libucrt:ungetc.obj
 0002:0000ec70       __sehtable$??$?RV<lambda_0fef6fff2b5e6b53303c9058db11ae1f>@@AAV<lambda_082c17da81b0962e08c0587ee0fac50c>@@V<lambda_fa6e051aed0a38726081083cc7c328e9>@@@?$__crt_seh_guarded_call@PAD@@QAEPAD$$QAV<lambda_0fef6fff2b5e6b53303c9058db11ae1f>@@AAV<lambda_082c17da81b0962e08c0587ee0fac50c>@@$$QAV<lambda_fa6e051aed0a38726081083cc7c328e9>@@@Z 00438c70     libucrt:setlocale.obj
 0002:0000ec90       __sehtable$_fgetwc         00438c90     libucrt:fgetwc.obj
 0002:0000ecb0       __sehtable$_fputwc         00438cb0     libucrt:fputwc.obj
 0002:0000ecd0       __sehtable$_ungetwc        00438cd0     libucrt:ungetwc.obj
 0002:0000ecf0       __sehtable$??$common_fsopen@_W@@YAPAU_iobuf@@QB_W0H@Z 00438cf0     libucrt:fopen.obj
 0002:0000ed10       __sehtable$__query_new_handler 00438d10     libucrt:new_handler.obj
 0002:0000ed30       __sehtable$??R<lambda_6e4b09c48022b2350581041d5f6b0c4c>@@QBE@XZ 00438d30     libucrt:exit.obj
 0002:0000ed50       __sehtable$??$?RV<lambda_03b1d95aef87969028cfba75ccab2455>@@AAV<lambda_6e4b09c48022b2350581041d5f6b0c4c>@@V<lambda_22bdf7517842c4b3e53723af5aa32b9e>@@@?$__crt_seh_guarded_call@X@@QAEX$$QAV<lambda_03b1d95aef87969028cfba75ccab2455>@@AAV<lambda_6e4b09c48022b2350581041d5f6b0c4c>@@$$QAV<lambda_22bdf7517842c4b3e53723af5aa32b9e>@@@Z 00438d50     libucrt:exit.obj
 0002:0000ed70       __sehtable$??$?RV<lambda_8e746cf0007f6ed984d6f78af1fec997>@@AAV<lambda_22ebabd17bc4fa466a2aca6d8deb888d>@@V<lambda_18ed0c0b38a6dc0daf1e7ac6d6adf05e>@@@?$__crt_seh_guarded_call@H@@QAEH$$QAV<lambda_8e746cf0007f6ed984d6f78af1fec997>@@AAV<lambda_22ebabd17bc4fa466a2aca6d8deb888d>@@$$QAV<lambda_18ed0c0b38a6dc0daf1e7ac6d6adf05e>@@@Z 00438d70     libucrt:onexit.obj
 0002:0000ed90       __sehtable$??$?RV<lambda_69a2805e680e0e292e8ba93315fe43a8>@@AAV<lambda_f03950bc5685219e0bcd2087efbe011e>@@V<lambda_03fcd07e894ec930e3f35da366ca99d6>@@@?$__crt_seh_guarded_call@H@@QAEH$$QAV<lambda_69a2805e680e0e292e8ba93315fe43a8>@@AAV<lambda_f03950bc5685219e0bcd2087efbe011e>@@$$QAV<lambda_03fcd07e894ec930e3f35da366ca99d6>@@@Z 00438d90     libucrt:onexit.obj
 0002:0000edb0       __sehtable$??$?RV<lambda_e5124f882df8998aaf41531e079ba474>@@AAV<lambda_3e16ef9562a7dcce91392c22ab16ea36>@@V<lambda_e25ca0880e6ef98be67edffd8c599615>@@@?$__crt_seh_guarded_call@X@@QAEX$$QAV<lambda_e5124f882df8998aaf41531e079ba474>@@AAV<lambda_3e16ef9562a7dcce91392c22ab16ea36>@@$$QAV<lambda_e25ca0880e6ef98be67edffd8c599615>@@@Z 00438db0     libucrt:wsetlocale.obj
 0002:0000edd0       __sehtable$??$?RV<lambda_303d0ad9bde654cb3f803a73716ce7a4>@@AAV<lambda_92fe181106aff629c9a2e25713a64969>@@V<lambda_184325e10b6cff6f771390cbceab281b>@@@?$__crt_seh_guarded_call@X@@QAEX$$QAV<lambda_303d0ad9bde654cb3f803a73716ce7a4>@@AAV<lambda_92fe181106aff629c9a2e25713a64969>@@$$QAV<lambda_184325e10b6cff6f771390cbceab281b>@@@Z 00438dd0     libucrt:wsetlocale.obj
 0002:0000edf0       __sehtable$??$?RV<lambda_38c1253c7a74f5d2d430989951395d98>@@AAV<lambda_b163b37eafe0a13f2c371fafeb0365c9>@@AAV<lambda_8dff2cf36a5417162780cd64fa2883ef>@@@?$__crt_seh_guarded_call@X@@QAEX$$QAV<lambda_38c1253c7a74f5d2d430989951395d98>@@AAV<lambda_b163b37eafe0a13f2c371fafeb0365c9>@@AAV<lambda_8dff2cf36a5417162780cd64fa2883ef>@@@Z 00438df0     libucrt:wsetlocale.obj
 0002:0000ee10       __sehtable$_terminate      00438e10     libucrt:terminate.obj
 0002:0000ee30       __sehtable$??$?RV<lambda_15ade71b0218206bbe3333a0c9b79046>@@AAV<lambda_da44e0f8b0f19ba52fefafb335991732>@@V<lambda_207f2d024fc103971653565357d6cd41>@@@?$__crt_seh_guarded_call@X@@QAEX$$QAV<lambda_15ade71b0218206bbe3333a0c9b79046>@@AAV<lambda_da44e0f8b0f19ba52fefafb335991732>@@$$QAV<lambda_207f2d024fc103971653565357d6cd41>@@@Z 00438e30     libucrt:per_thread_data.obj
 0002:0000ee50       __sehtable$??$?RV<lambda_a7e850c220f1c8d1e6efeecdedd162c6>@@AAV<lambda_46720907175c18b6c9d2717bc0d2d362>@@V<lambda_9048902d66e8d99359bc9897bbb930a8>@@@?$__crt_seh_guarded_call@X@@QAEX$$QAV<lambda_a7e850c220f1c8d1e6efeecdedd162c6>@@AAV<lambda_46720907175c18b6c9d2717bc0d2d362>@@$$QAV<lambda_9048902d66e8d99359bc9897bbb930a8>@@@Z 00438e50     libucrt:per_thread_data.obj
 0002:0000ee70       __sehtable$??$?RV<lambda_38edbb1296d33220d7e4dd0ed76b244a>@@AAV<lambda_5ce1d447e08cb34b2473517608e21441>@@V<lambda_fb385d3da700c9147fc39e65dd577a8c>@@@?$__crt_seh_guarded_call@X@@QAEX$$QAV<lambda_38edbb1296d33220d7e4dd0ed76b244a>@@AAV<lambda_5ce1d447e08cb34b2473517608e21441>@@$$QAV<lambda_fb385d3da700c9147fc39e65dd577a8c>@@@Z 00438e70     libucrt:per_thread_data.obj
 0002:0000ee90       __sehtable$??$?RV<lambda_6affb1475c98b40b75cdec977db92e3c>@@AAV<lambda_b8d4b9c228a6ecc3f80208dbb4b4a104>@@V<lambda_608742c3c92a14382c1684fc64f96c88>@@@?$__crt_seh_guarded_call@X@@QAEX$$QAV<lambda_6affb1475c98b40b75cdec977db92e3c>@@AAV<lambda_b8d4b9c228a6ecc3f80208dbb4b4a104>@@$$QAV<lambda_608742c3c92a14382c1684fc64f96c88>@@@Z 00438e90     libucrt:per_thread_data.obj
 0002:0000eeb0       __sehtable$___set_fpsr_sse2 00438eb0     libucrt:fpctrl.obj
 0002:0000eed0       __sehtable$___acrt_initialize_lowio 00438ed0     libucrt:ioinit.obj
 0002:0000eef0       __sehtable$??$?RV<lambda_93797fb4802c957ba6a7f08e1250235b>@@AAV<lambda_1f3ce6bd48e0aa2e72a71c02eee379d3>@@V<lambda_56cae30c9364c9b6c15aeaac05d0418e>@@@?$__crt_seh_guarded_call@H@@QAEH$$QAV<lambda_93797fb4802c957ba6a7f08e1250235b>@@AAV<lambda_1f3ce6bd48e0aa2e72a71c02eee379d3>@@$$QAV<lambda_56cae30c9364c9b6c15aeaac05d0418e>@@@Z 00438ef0     libucrt:winapi_thunks.obj
 0002:0000ef10       __sehtable$__fcloseall     00438f10     libucrt:closeall.obj
 0002:0000ef30       __sehtable$??$?RV<lambda_218ce3db14220d0be481dae8ef3383b6>@@AAV<lambda_628dfdc04ba53c8bfc02c9951375f3f5>@@V<lambda_57dc472bd5c9d5f3b2cbca59b8a843ae>@@@?$__crt_seh_guarded_call@H@@QAEH$$QAV<lambda_218ce3db14220d0be481dae8ef3383b6>@@AAV<lambda_628dfdc04ba53c8bfc02c9951375f3f5>@@$$QAV<lambda_57dc472bd5c9d5f3b2cbca59b8a843ae>@@@Z 00438f30     libucrt:close.obj
 0002:0000ef50       __sehtable$?__acrt_stdio_allocate_stream@@YA?AV__crt_stdio_stream@@XZ 00438f50     libucrt:stream.obj
 0002:0000ef70       __sehtable$??$?RV<lambda_9e9de3de5fa147e2223d7db92bc10aa6>@@AAV<lambda_38ce7e780aa69e748d6df282ebc68efe>@@V<lambda_8ca6da459f0f6780f1cff60fdc3d00e5>@@@?$__crt_seh_guarded_call@H@@QAEH$$QAV<lambda_9e9de3de5fa147e2223d7db92bc10aa6>@@AAV<lambda_38ce7e780aa69e748d6df282ebc68efe>@@$$QAV<lambda_8ca6da459f0f6780f1cff60fdc3d00e5>@@@Z 00438f70     libucrt:commit.obj
 0002:0000ef90       __sehtable$__write         00438f90     libucrt:write.obj
 0002:0000efb0       __sehtable$??$common_ftell@_J@@YA_JV__crt_stdio_stream@@@Z 00438fb0     libucrt:ftell.obj
 0002:0000efd0       __sehtable$??$common_lseek@_J@@YA_JH_JH@Z 00438fd0     libucrt:lseek.obj
 0002:0000eff0       __sehtable$_raise          00438ff0     libucrt:signal.obj
 0002:0000f010       __sehtable$??$?RV<lambda_cbab9ec6f41b0180b23cc171c22676b0>@@AAV<lambda_44731a7d0e6d81c3e6aa82d741081786>@@V<lambda_4b292cb8dd18144e164572427af410ab>@@@?$__crt_seh_guarded_call@P6AXH@Z@@QAEP6AXH@Z$$QAV<lambda_cbab9ec6f41b0180b23cc171c22676b0>@@AAV<lambda_44731a7d0e6d81c3e6aa82d741081786>@@$$QAV<lambda_4b292cb8dd18144e164572427af410ab>@@@Z 00439010     libucrt:signal.obj
 0002:0000f030       __sehtable$?update_thread_multibyte_data_internal@@YAPAU__crt_multibyte_data@@QAU__acrt_ptd@@QAU1@@Z 00439030     libucrt:mbctype.obj
 0002:0000f050       __sehtable$??$?RV<lambda_ceb1ee4838e85a9d631eb091e2fbe199>@@AAV<lambda_ae742caa10f662c28703da3d2ea5e57e>@@V<lambda_cd08b5d6af4937fe54fc07d0c9bf6b37>@@@?$__crt_seh_guarded_call@X@@QAEX$$QAV<lambda_ceb1ee4838e85a9d631eb091e2fbe199>@@AAV<lambda_ae742caa10f662c28703da3d2ea5e57e>@@$$QAV<lambda_cd08b5d6af4937fe54fc07d0c9bf6b37>@@@Z 00439050     libucrt:mbctype.obj
 0002:0000f070       __sehtable$__alloc_osfhnd  00439070     libucrt:osfinfo.obj
 0002:0000f090       __sehtable$___acrt_lowio_ensure_fh_exists 00439090     libucrt:osfinfo.obj
 0002:0000f0b0       __sehtable$___acrt_update_thread_locale_data 004390b0     libucrt:locale_refcounting.obj
 0002:0000f0d0       __sehtable$__read          004390d0     libucrt:read.obj
 0002:0000f0f0       __sehtable$??$common_sopen_dispatch@_W@@YAHQB_WHHHQAHH@Z 004390f0     libucrt:open.obj
 0002:0000f110       __sehtable$__IsNonwritableInCurrentImage 00439110     LIBCMT:pesect.obj
 0002:0000f2ce       .idata$6                   004392ce     Shell32:SHELL32.dll
 0002:0000f612       .idata$6                   00439612     kernel32:KERNEL32.dll
 0003:00000000       ?init@std@@3JA             0043a000     libcpmt:xlock.obj
 0003:00000008       ?atcount_cdecl@@3IA        0043a008     libcpmt:iosptrs.obj
 0003:000000a0       ?__vcrt_flsindex@@3KA      0043a0a0     libvcruntime:per_thread_data.obj
 0003:0000011c       ?errno_no_memory@@3HA      0043a11c     libucrt:errno.obj
 0003:00000120       ?doserrno_no_memory@@3KA   0043a120     libucrt:errno.obj
 0003:000001e0       __ctype_loc_style          0043a1e0     libucrt:wsetlocale.obj
 0003:000001e4       ?__acrt_flsindex@@3KA      0043a1e4     libucrt:per_thread_data.obj
 0003:000001e8       ?__DAZ_ENABLED@?1??__set_fpsr_sse2@@9@9 0043a1e8     libucrt:fpctrl.obj
 0003:000002f0       ?tzstd_program@@3PADA      0043a2f0     libucrt:timeset.obj
 0003:00000330       ?tzdst_program@@3PADA      0043a330     libucrt:timeset.obj
 0003:00000370       ?tzname_states@@3PAY01PADA 0043a370     libucrt:timeset.obj
 0003:00000378       __mbctypes                 0043a378     libucrt:mbctype.obj
 0003:00000480       __mbcasemaps               0043a480     libucrt:mbctype.obj
 0003:00000580       ?__rgctypeflag@@3PADA      0043a580     libucrt:mbctype.obj
 0003:00000588       ?__rgcode_page_info@@3PAUcode_page_info@@A 0043a588     libucrt:mbctype.obj
 0003:0000108c       ?sStartTag@@3V?$basic_string@DU?$char_traits@D@std@@V?$allocator@D@2@@std@@A 0043b08c     StringScanner.cpp.obj
 0003:000010a4       ?sEndTag@@3V?$basic_string@DU?$char_traits@D@std@@V?$allocator@D@2@@std@@A 0043b0a4     StringScanner.cpp.obj
 0003:000010bc       ?sWEndTag@@3V?$basic_string@_WU?$char_traits@_W@std@@V?$allocator@_W@2@@std@@A 0043b0bc     StringScanner.cpp.obj
 0003:000010d4       ?sWStartTag@@3V?$basic_string@_WU?$char_traits@_W@std@@V?$allocator@_W@2@@std@@A 0043b0d4     StringScanner.cpp.obj
 0003:00001100       ?initlocks@std@@3V_Init_locks@1@A 0043b100     libcpmt:xlock.obj
 0003:00001108       ?mtx@std@@3PAU_RTL_CRITICAL_SECTION@@A 0043b108     libcpmt:xlock.obj
 0003:000011d0       _global_locale             0043b1d0     libcpmt:locale0.obj
 0003:000011d4       ?_Fac_head@std@@3PAU_Fac_node@1@A 0043b1d4     libcpmt:locale0.obj
 0003:000011ec       ?classic_locale@std@@3Vlocale@1@A 0043b1ec     libcpmt:locale0.obj
 0003:000011f4       ?_Fac_tidy_reg@std@@3U_Fac_tidy_reg_t@1@B 0043b1f4     libcpmt:locale0.obj
 0003:000011f5       ?registered@?1??_Setgloballocale@locale@std@@CAXPAX@Z@4_NA 0043b1f5     libcpmt:locale0.obj
 0003:000011f8       ?initlocks@@3V_Init_locks@std@@A 0043b1f8     libcpmt:cout.obj
 0003:000011f9       ?init_cout@std@@3U_Init_cout@1@A 0043b1f9     libcpmt:cout.obj
 0003:00001250       ?fout@std@@3V?$basic_filebuf@DU?$char_traits@D@std@@@1@A 0043b250     libcpmt:cout.obj
 0003:000012a8       ?initlocks@@3V_Init_locks@std@@A 0043b2a8     libcpmt:wcout.obj
 0003:000012a9       ?init_wcout@std@@3U_Init_wcout@1@A 0043b2a9     libcpmt:wcout.obj
 0003:00001300       ?wfout@std@@3V?$basic_filebuf@_WU?$char_traits@_W@std@@@1@A 0043b300     libcpmt:wcout.obj
 0003:00001368       ?stdstr@std@@3PAPAVios_base@1@A 0043b368     libcpmt:ios.obj
 0003:00001390       ?stdopens@std@@3PADA       0043b390     libcpmt:ios.obj
 0003:000013bc       ?atfuns_cdecl@@3PAP6AXXZA  0043b3bc     libcpmt:iosptrs.obj
 0003:000013e4       ?initlocks@std@@3V_Init_locks@1@A 0043b3e4     libcpmt:iosptrs.obj
 0003:000013e5       ?init_atexit@@3U_Init_atexit@@A 0043b3e5     libcpmt:iosptrs.obj
 0003:00001510       ?module_local_atexit_table@@3U_onexit_table_t@@A 0043b510     LIBCMT:utility.obj
 0003:0000151c       ?module_local_at_quick_exit_table@@3U_onexit_table_t@@A 0043b51c     LIBCMT:utility.obj
 0003:00001528       ?is_initialized_as_dll@@3_NA 0043b528     LIBCMT:utility.obj
 0003:0000152c       ?_Tss_mutex@@3U_RTL_CRITICAL_SECTION@@A 0043b52c     LIBCMT:thread_safe_statics.obj
 0003:00001544       ?_Tss_cv@@3U_RTL_CONDITION_VARIABLE@@A 0043b544     LIBCMT:thread_safe_statics.obj
 0003:00001548       ?_Tss_event@@3PAXA         0043b548     LIBCMT:thread_safe_statics.obj
 0003:0000154c       ?encoded_sleep_condition_variable_cs@@3P6GHPAU_RTL_CONDITION_VARIABLE@@PAU_RTL_CRITICAL_SECTION@@K@ZA 0043b54c     LIBCMT:thread_safe_statics.obj
 0003:00001550       ?encoded_wake_all_condition_variable@@3P6GXPAU_RTL_CONDITION_VARIABLE@@@ZA 0043b550     LIBCMT:thread_safe_statics.obj
 0003:00001568       _GS_ExceptionRecord        0043b568     LIBCMT:gs_report.obj
 0003:000015b8       _GS_ContextRecord          0043b5b8     LIBCMT:gs_report.obj
 0003:0000189c       ?module_handles@@3PAPAUHINSTANCE__@@A 0043b89c     libvcruntime:winapi_downlevel.obj
 0003:000018ac       ?encoded_function_pointers@@3PAPAXA 0043b8ac     libvcruntime:winapi_downlevel.obj
 0003:000018d4       ?__vcrt_startup_thread_ptd@@3U__vcrt_ptd@@A 0043b8d4     libvcruntime:per_thread_data.obj
 0003:000018fc       ___vcrt_lock_table         0043b8fc     libvcruntime:locks.obj
 0003:00001914       ___vcrt_locks_initialized  0043b914     libvcruntime:locks.obj
 0003:00001940       ?heap@@3V_HeapManager@@A   0043b940     libvcruntime:undname.obj
 0003:00001954       ?__acrt_invalid_parameter_handler@@3V?$dual_state_global@P6AXPB_W00II@Z@__crt_state_management@@A 0043b954     libucrt:invalid_parameter.obj
 0003:00001970       ?source_frequency@@3_JA    0043b970     libucrt:clock.obj
 0003:00001978       ?start_count@@3_JA         0043b978     libucrt:clock.obj
 0003:00001980       ?__acrt_lock_table@@3PAU_RTL_CRITICAL_SECTION@@A 0043b980     libucrt:locks.obj
 0003:00001ad0       ?__acrt_locks_initialized@@3IA 0043bad0     libucrt:locks.obj
 0003:00001ad4       ?__acrt_new_handler@@3V?$dual_state_global@P6AHI@Z@__crt_state_management@@A 0043bad4     libucrt:new_handler.obj
 0003:00001ad8       ?c_termination_complete@@3JA 0043bad8     libucrt:exit.obj
 0003:00001adc       ?thread_local_exit_callback_func@@3P6GXPAXK0@ZA 0043badc     libucrt:exit.obj
 0003:00001ae8       ?program_name@?1???$common_configure_argv@D@@YAHW4_crt_argv_mode@@@Z@4PADA 0043bae8     libucrt:argv_parsing.obj
 0003:00001c18       ?__acrt_app_type@@3W4_crt_app_type@@A 0043bc18     libucrt:report_runtime_error.obj
 0003:00001c1c       ?user_matherr@@3V?$dual_state_global@P6AHPAU_exception@@@Z@__crt_state_management@@A 0043bc1c     libucrt:matherr.obj
 0003:00001c3c       ?__acrt_global_new_mode@@3V?$dual_state_global@J@__crt_state_management@@A 0043bc3c     libucrt:new_mode.obj
 0003:00001c44       ?enable_percent_n@@3IA     0043bc44     libucrt:printf_count_output.obj
 0003:00001e60       ?module_handles@@3PAPAUHINSTANCE__@@A 0043be60     libucrt:winapi_thunks.obj
 0003:00001eb0       ?encoded_function_pointers@@3PAPAXA 0043beb0     libucrt:winapi_thunks.obj
 0003:00001f38       ?static_enum_proc@?1??enum_system_locales_ex_nolock@@YAHQ6GHPA_WKJ@Z@Z@4P6GH0KJ@ZA 0043bf38     libucrt:winapi_thunks.obj
 0003:00001f40       ?ctrlc_action@@3V?$dual_state_global@P6AXH@Z@__crt_state_management@@A 0043bf40     libucrt:signal.obj
 0003:00001f44       ?ctrlbreak_action@@3V?$dual_state_global@P6AXH@Z@__crt_state_management@@A 0043bf44     libucrt:signal.obj
 0003:00001f48       ?abort_action@@3V?$dual_state_global@P6AXH@Z@__crt_state_management@@A 0043bf48     libucrt:signal.obj
 0003:00001f4c       ?term_action@@3V?$dual_state_global@P6AXH@Z@__crt_state_management@@A 0043bf4c     libucrt:signal.obj
 0003:00001f60       ?_tzname@@3V?$dual_state_global@PAPAD@__crt_state_management@@A 0043bf60     libucrt:timeset.obj
 0003:00001f68       ?tz_api_used@@3HA          0043bf68     libucrt:tzset.obj
 0003:00001f70       ?tz_info@@3U_TIME_ZONE_INFORMATION@@A 0043bf70     libucrt:tzset.obj
 0003:00002028       ?fSystemSet@@3HA           0043c028     libucrt:mbctype.obj
 0003:0000202c       ?initialized@?1??__acrt_initialize_multibyte@@9@4_NA 0043c02c     libucrt:mbctype.obj
 0003:00002034       __pmatherr_set             0043c034     libucrt:libm_error.obj
 0004:00000000       __guard_fids_??__Einitlocks@std@@YAXXZ 0043d000     libcpmt:xlock.obj
 0004:00000004       __guard_fids__             0043d004     libcpmt:xlock.obj
 0004:00000008       __guard_fids__             0043d008     libcpmt:xthrow.obj
 0004:00000010       __guard_fids__             0043d010     libcpmt:xthrow.obj
 0004:00000018       __guard_fids__             0043d018     libcpmt:xthrow.obj
 0004:00000020       __guard_fids__             0043d020     libcpmt:xthrow.obj
 0004:00000028       __guard_fids__             0043d028     libcpmt:xthrow.obj
 0004:0000002c       __guard_fids__             0043d02c     libcpmt:xthrow.obj
 0004:00000030       __guard_fids__             0043d030     libcpmt:xthrow.obj
 0004:00000034       __guard_fids__             0043d034     libcpmt:xthrow.obj
 0004:00000038       __guard_fids__             0043d038     libcpmt:xthrow.obj
 0004:0000003c       __guard_fids__             0043d03c     libcpmt:xthrow.obj
 0004:00000040       __guard_fids__             0043d040     libcpmt:xthrow.obj
 0004:00000044       __guard_fids_??__E_Fac_tidy_reg@std@@YAXXZ 0043d044     libcpmt:locale0.obj
 0004:00000048       __guard_fids_?_Setgloballocale@locale@std@@CAXPAX@Z 0043d048     libcpmt:locale0.obj
 0004:0000004c       __guard_fids_??__Eclassic_locale@std@@YAXXZ 0043d04c     libcpmt:locale0.obj
 0004:00000050       __guard_fids__             0043d050     libcpmt:locale0.obj
 0004:0000005c       __guard_fids__             0043d05c     libcpmt:locale0.obj
 0004:00000060       __guard_fids__             0043d060     libcpmt:locale0.obj
 0004:00000064       __guard_fids_??__Einitlocks@@YAXXZ 0043d064     libcpmt:cout.obj
 0004:00000068       __guard_fids_??__Efout@std@@YAXXZ 0043d068     libcpmt:cout.obj
 0004:0000006c       __guard_fids_??__Ecout@std@@YAXXZ 0043d06c     libcpmt:cout.obj
 0004:00000070       __guard_fids__             0043d070     libcpmt:cout.obj
 0004:00000074       __guard_fids__             0043d074     libcpmt:cout.obj
 0004:00000078       __guard_fids__             0043d078     libcpmt:cout.obj
 0004:0000007c       __guard_fids__             0043d07c     libcpmt:cout.obj
 0004:00000080       __guard_fids_??__Einitlocks@@YAXXZ 0043d080     libcpmt:wcout.obj
 0004:00000084       __guard_fids_??__Ewfout@std@@YAXXZ 0043d084     libcpmt:wcout.obj
 0004:00000088       __guard_fids_??__Ewcout@std@@YAXXZ 0043d088     libcpmt:wcout.obj
 0004:0000008c       __guard_fids__             0043d08c     libcpmt:wcout.obj
 0004:000000b4       __guard_fids__             0043d0b4     libcpmt:wcout.obj
 0004:000000f0       __guard_fids__             0043d0f0     libcpmt:wcout.obj
 0004:0000012c       __guard_fids__             0043d12c     libcpmt:wcout.obj
 0004:00000130       __guard_fids__             0043d130     libcpmt:wcout.obj
 0004:00000134       __guard_fids__             0043d134     libcpmt:wcout.obj
 0004:00000138       __guard_fids__             0043d138     libcpmt:wcout.obj
 0004:0000013c       __guard_fids__             0043d13c     libcpmt:wcout.obj
 0004:00000140       __guard_fids__             0043d140     libcpmt:wcout.obj
 0004:00000144       __guard_fids_??__Einitlocks@std@@YAXXZ 0043d144     libcpmt:iosptrs.obj
 0004:00000148       __guard_fids_??__Einit_atexit@@YAXXZ 0043d148     libcpmt:iosptrs.obj
 0004:0000014c       __guard_fids__             0043d14c     libcpmt:iosptrs.obj
 0004:00000150       __guard_fids__             0043d150     libcpmt:iosptrs.obj
 0004:00000154       __guard_fids__             0043d154     libcpmt:winapisupp.obj
 0004:00000158       __guard_fids__             0043d158     LIBCMT:thread_safe_statics.obj
 0004:0000015c       __guard_fids_?__scrt_initialize_thread_safe_statics@@YAHXZ 0043d15c     LIBCMT:thread_safe_statics.obj
 0004:00000160       __guard_fids__             0043d160     LIBCMT:std_type_info_static.obj
 0004:00000164       __guard_fids__             0043d164     LIBCMT:exe_main.obj
 0004:00000168       __guard_fids__             0043d168     LIBCMT:exe_main.obj
 0004:0000016c       __guard_fids__             0043d16c     LIBCMT:exe_main.obj
 0004:00000170       __guard_fids_?pre_c_initialization@@YAHXZ 0043d170     LIBCMT:exe_main.obj
 0004:00000178       __guard_fids__             0043d178     LIBCMT:throw_bad_alloc.obj
 0004:00000180       __guard_fids__             0043d180     LIBCMT:throw_bad_alloc.obj
 0004:00000184       __guard_fids__             0043d184     LIBCMT:throw_bad_alloc.obj
 0004:00000188       __guard_fids____scrt_set_unhandled_exception_filter 0043d188     LIBCMT:utility_desktop.obj
 0004:0000018c       __guard_fids__             0043d18c     LIBCMT:guard_support.obj
 0004:00000190       __guard_fids__             0043d190     libvcruntime:frame.obj
 0004:00000194       __guard_fids__             0043d194     libvcruntime:frame.obj
 0004:0000019c       __guard_fids__             0043d19c     libvcruntime:frame.obj
 0004:000001a0       __guard_fids__             0043d1a0     libvcruntime:frame.obj
 0004:000001a4       __guard_fids____vcrt_initialize_ptd 0043d1a4     libvcruntime:per_thread_data.obj
 0004:000001a8       __guard_fids____dcrt_uninitialize_environments_nolock 0043d1a8     libucrt:environment_initialization.obj
 0004:000001b0       __guard_fids__             0043d1b0     libucrt:initialization.obj
 0004:00000210       __guard_fids__             0043d210     libucrt:wsetlocale.obj
 0004:00000228       __guard_fids____acrt_initialize_ptd 0043d228     libucrt:per_thread_data.obj
 0004:0000022c       __guard_fids__             0043d22c     libucrt:stdio_initializer.obj
 0004:00000230       __guard_fids__             0043d230     libucrt:stdio_initializer.obj
 0004:00000234       __guard_fids_??$?RV<lambda_93797fb4802c957ba6a7f08e1250235b>@@AAV<lambda_1f3ce6bd48e0aa2e72a71c02eee379d3>@@V<lambda_56cae30c9364c9b6c15aeaac05d0418e>@@@?$__crt_seh_guarded_call@H@@QAEH$$QAV<lambda_93797fb4802c957ba6a7f08e1250235b>@@AAV<lambda_1f3ce6bd48e0aa2e72a71c02eee379d3>@@$$QAV<lambda_56cae30c9364c9b6c15aeaac05d0418e>@@@Z 0043d234     libucrt:winapi_thunks.obj
 0004:00000238       __guard_fids__             0043d238     libucrt:clock_initializer.obj
 0004:0000023c       __guard_fids_??$expand_argument_wildcards@D@@YAHQAD0AAV?$argument_list@D@?A0x5f5c8891@@@Z 0043d23c     libucrt:argv_wildcards.obj
 0004:00000240       __guard_fids__             0043d240     libucrt:locale_initializer.obj
 0004:00000244       __guard_fids__GetLocaleNameFromLangCountry 0043d244     libucrt:get_qualified_locale.obj
 0004:00000248       __guard_fids__GetLocaleNameFromLanguage 0043d248     libucrt:get_qualified_locale.obj
 0004:0000024c       __guard_fids__GetLcidFromLangCountry 0043d24c     libucrt:getqloc_downlevel.obj
 0004:00000250       __guard_fids__GetLcidFromLanguage 0043d250     libucrt:getqloc_downlevel.obj
 0004:00000254       __guard_fids__GetLcidFromCountry 0043d254     libucrt:getqloc_downlevel.obj
 0004:00000258       __guard_fids__             0043d258     libucrt:sse2_initializer.obj
 0004:0000025c       __guard_fids____libm_error_support 0043d25c     libucrt:libm_error.obj
 0004:00000260       __guard_fids__             0043d260     libucrt:timeset_initializer.obj
 0004:00000264       __guard_fids__             0043d264     libucrt:multibyte_initializer.obj
 0004:00000268       __guard_fids__             0043d268     libucrt:console_output_initializer.obj
